
rtarget:     file format elf64-x86-64


Disassembly of section .init:

0000000000400bc8 <_init>:
  400bc8:	48 83 ec 08          	sub    $0x8,%rsp
  400bcc:	48 8b 05 25 44 20 00 	mov    0x204425(%rip),%rax        # 604ff8 <_DYNAMIC+0x1d0>
  400bd3:	48 85 c0             	test   %rax,%rax
  400bd6:	74 05                	je     400bdd <_init+0x15>
  400bd8:	e8 33 01 00 00       	callq  400d10 <__gmon_start__@plt>
  400bdd:	48 83 c4 08          	add    $0x8,%rsp
  400be1:	c3                   	retq   

Disassembly of section .plt:

0000000000400bf0 <strcasecmp@plt-0x10>:
  400bf0:	ff 35 12 44 20 00    	pushq  0x204412(%rip)        # 605008 <_GLOBAL_OFFSET_TABLE_+0x8>
  400bf6:	ff 25 14 44 20 00    	jmpq   *0x204414(%rip)        # 605010 <_GLOBAL_OFFSET_TABLE_+0x10>
  400bfc:	0f 1f 40 00          	nopl   0x0(%rax)

0000000000400c00 <strcasecmp@plt>:
  400c00:	ff 25 12 44 20 00    	jmpq   *0x204412(%rip)        # 605018 <_GLOBAL_OFFSET_TABLE_+0x18>
  400c06:	68 00 00 00 00       	pushq  $0x0
  400c0b:	e9 e0 ff ff ff       	jmpq   400bf0 <_init+0x28>

0000000000400c10 <__errno_location@plt>:
  400c10:	ff 25 0a 44 20 00    	jmpq   *0x20440a(%rip)        # 605020 <_GLOBAL_OFFSET_TABLE_+0x20>
  400c16:	68 01 00 00 00       	pushq  $0x1
  400c1b:	e9 d0 ff ff ff       	jmpq   400bf0 <_init+0x28>

0000000000400c20 <srandom@plt>:
  400c20:	ff 25 02 44 20 00    	jmpq   *0x204402(%rip)        # 605028 <_GLOBAL_OFFSET_TABLE_+0x28>
  400c26:	68 02 00 00 00       	pushq  $0x2
  400c2b:	e9 c0 ff ff ff       	jmpq   400bf0 <_init+0x28>

0000000000400c30 <strncmp@plt>:
  400c30:	ff 25 fa 43 20 00    	jmpq   *0x2043fa(%rip)        # 605030 <_GLOBAL_OFFSET_TABLE_+0x30>
  400c36:	68 03 00 00 00       	pushq  $0x3
  400c3b:	e9 b0 ff ff ff       	jmpq   400bf0 <_init+0x28>

0000000000400c40 <strcpy@plt>:
  400c40:	ff 25 f2 43 20 00    	jmpq   *0x2043f2(%rip)        # 605038 <_GLOBAL_OFFSET_TABLE_+0x38>
  400c46:	68 04 00 00 00       	pushq  $0x4
  400c4b:	e9 a0 ff ff ff       	jmpq   400bf0 <_init+0x28>

0000000000400c50 <puts@plt>:
  400c50:	ff 25 ea 43 20 00    	jmpq   *0x2043ea(%rip)        # 605040 <_GLOBAL_OFFSET_TABLE_+0x40>
  400c56:	68 05 00 00 00       	pushq  $0x5
  400c5b:	e9 90 ff ff ff       	jmpq   400bf0 <_init+0x28>

0000000000400c60 <write@plt>:
  400c60:	ff 25 e2 43 20 00    	jmpq   *0x2043e2(%rip)        # 605048 <_GLOBAL_OFFSET_TABLE_+0x48>
  400c66:	68 06 00 00 00       	pushq  $0x6
  400c6b:	e9 80 ff ff ff       	jmpq   400bf0 <_init+0x28>

0000000000400c70 <mmap@plt>:
  400c70:	ff 25 da 43 20 00    	jmpq   *0x2043da(%rip)        # 605050 <_GLOBAL_OFFSET_TABLE_+0x50>
  400c76:	68 07 00 00 00       	pushq  $0x7
  400c7b:	e9 70 ff ff ff       	jmpq   400bf0 <_init+0x28>

0000000000400c80 <printf@plt>:
  400c80:	ff 25 d2 43 20 00    	jmpq   *0x2043d2(%rip)        # 605058 <_GLOBAL_OFFSET_TABLE_+0x58>
  400c86:	68 08 00 00 00       	pushq  $0x8
  400c8b:	e9 60 ff ff ff       	jmpq   400bf0 <_init+0x28>

0000000000400c90 <memset@plt>:
  400c90:	ff 25 ca 43 20 00    	jmpq   *0x2043ca(%rip)        # 605060 <_GLOBAL_OFFSET_TABLE_+0x60>
  400c96:	68 09 00 00 00       	pushq  $0x9
  400c9b:	e9 50 ff ff ff       	jmpq   400bf0 <_init+0x28>

0000000000400ca0 <alarm@plt>:
  400ca0:	ff 25 c2 43 20 00    	jmpq   *0x2043c2(%rip)        # 605068 <_GLOBAL_OFFSET_TABLE_+0x68>
  400ca6:	68 0a 00 00 00       	pushq  $0xa
  400cab:	e9 40 ff ff ff       	jmpq   400bf0 <_init+0x28>

0000000000400cb0 <close@plt>:
  400cb0:	ff 25 ba 43 20 00    	jmpq   *0x2043ba(%rip)        # 605070 <_GLOBAL_OFFSET_TABLE_+0x70>
  400cb6:	68 0b 00 00 00       	pushq  $0xb
  400cbb:	e9 30 ff ff ff       	jmpq   400bf0 <_init+0x28>

0000000000400cc0 <read@plt>:
  400cc0:	ff 25 b2 43 20 00    	jmpq   *0x2043b2(%rip)        # 605078 <_GLOBAL_OFFSET_TABLE_+0x78>
  400cc6:	68 0c 00 00 00       	pushq  $0xc
  400ccb:	e9 20 ff ff ff       	jmpq   400bf0 <_init+0x28>

0000000000400cd0 <__libc_start_main@plt>:
  400cd0:	ff 25 aa 43 20 00    	jmpq   *0x2043aa(%rip)        # 605080 <_GLOBAL_OFFSET_TABLE_+0x80>
  400cd6:	68 0d 00 00 00       	pushq  $0xd
  400cdb:	e9 10 ff ff ff       	jmpq   400bf0 <_init+0x28>

0000000000400ce0 <signal@plt>:
  400ce0:	ff 25 a2 43 20 00    	jmpq   *0x2043a2(%rip)        # 605088 <_GLOBAL_OFFSET_TABLE_+0x88>
  400ce6:	68 0e 00 00 00       	pushq  $0xe
  400ceb:	e9 00 ff ff ff       	jmpq   400bf0 <_init+0x28>

0000000000400cf0 <gethostbyname@plt>:
  400cf0:	ff 25 9a 43 20 00    	jmpq   *0x20439a(%rip)        # 605090 <_GLOBAL_OFFSET_TABLE_+0x90>
  400cf6:	68 0f 00 00 00       	pushq  $0xf
  400cfb:	e9 f0 fe ff ff       	jmpq   400bf0 <_init+0x28>

0000000000400d00 <fprintf@plt>:
  400d00:	ff 25 92 43 20 00    	jmpq   *0x204392(%rip)        # 605098 <_GLOBAL_OFFSET_TABLE_+0x98>
  400d06:	68 10 00 00 00       	pushq  $0x10
  400d0b:	e9 e0 fe ff ff       	jmpq   400bf0 <_init+0x28>

0000000000400d10 <__gmon_start__@plt>:
  400d10:	ff 25 8a 43 20 00    	jmpq   *0x20438a(%rip)        # 6050a0 <_GLOBAL_OFFSET_TABLE_+0xa0>
  400d16:	68 11 00 00 00       	pushq  $0x11
  400d1b:	e9 d0 fe ff ff       	jmpq   400bf0 <_init+0x28>

0000000000400d20 <strtol@plt>:
  400d20:	ff 25 82 43 20 00    	jmpq   *0x204382(%rip)        # 6050a8 <_GLOBAL_OFFSET_TABLE_+0xa8>
  400d26:	68 12 00 00 00       	pushq  $0x12
  400d2b:	e9 c0 fe ff ff       	jmpq   400bf0 <_init+0x28>

0000000000400d30 <memcpy@plt>:
  400d30:	ff 25 7a 43 20 00    	jmpq   *0x20437a(%rip)        # 6050b0 <_GLOBAL_OFFSET_TABLE_+0xb0>
  400d36:	68 13 00 00 00       	pushq  $0x13
  400d3b:	e9 b0 fe ff ff       	jmpq   400bf0 <_init+0x28>

0000000000400d40 <time@plt>:
  400d40:	ff 25 72 43 20 00    	jmpq   *0x204372(%rip)        # 6050b8 <_GLOBAL_OFFSET_TABLE_+0xb8>
  400d46:	68 14 00 00 00       	pushq  $0x14
  400d4b:	e9 a0 fe ff ff       	jmpq   400bf0 <_init+0x28>

0000000000400d50 <random@plt>:
  400d50:	ff 25 6a 43 20 00    	jmpq   *0x20436a(%rip)        # 6050c0 <_GLOBAL_OFFSET_TABLE_+0xc0>
  400d56:	68 15 00 00 00       	pushq  $0x15
  400d5b:	e9 90 fe ff ff       	jmpq   400bf0 <_init+0x28>

0000000000400d60 <_IO_getc@plt>:
  400d60:	ff 25 62 43 20 00    	jmpq   *0x204362(%rip)        # 6050c8 <_GLOBAL_OFFSET_TABLE_+0xc8>
  400d66:	68 16 00 00 00       	pushq  $0x16
  400d6b:	e9 80 fe ff ff       	jmpq   400bf0 <_init+0x28>

0000000000400d70 <__isoc99_sscanf@plt>:
  400d70:	ff 25 5a 43 20 00    	jmpq   *0x20435a(%rip)        # 6050d0 <_GLOBAL_OFFSET_TABLE_+0xd0>
  400d76:	68 17 00 00 00       	pushq  $0x17
  400d7b:	e9 70 fe ff ff       	jmpq   400bf0 <_init+0x28>

0000000000400d80 <munmap@plt>:
  400d80:	ff 25 52 43 20 00    	jmpq   *0x204352(%rip)        # 6050d8 <_GLOBAL_OFFSET_TABLE_+0xd8>
  400d86:	68 18 00 00 00       	pushq  $0x18
  400d8b:	e9 60 fe ff ff       	jmpq   400bf0 <_init+0x28>

0000000000400d90 <bcopy@plt>:
  400d90:	ff 25 4a 43 20 00    	jmpq   *0x20434a(%rip)        # 6050e0 <_GLOBAL_OFFSET_TABLE_+0xe0>
  400d96:	68 19 00 00 00       	pushq  $0x19
  400d9b:	e9 50 fe ff ff       	jmpq   400bf0 <_init+0x28>

0000000000400da0 <fopen@plt>:
  400da0:	ff 25 42 43 20 00    	jmpq   *0x204342(%rip)        # 6050e8 <_GLOBAL_OFFSET_TABLE_+0xe8>
  400da6:	68 1a 00 00 00       	pushq  $0x1a
  400dab:	e9 40 fe ff ff       	jmpq   400bf0 <_init+0x28>

0000000000400db0 <getopt@plt>:
  400db0:	ff 25 3a 43 20 00    	jmpq   *0x20433a(%rip)        # 6050f0 <_GLOBAL_OFFSET_TABLE_+0xf0>
  400db6:	68 1b 00 00 00       	pushq  $0x1b
  400dbb:	e9 30 fe ff ff       	jmpq   400bf0 <_init+0x28>

0000000000400dc0 <strtoul@plt>:
  400dc0:	ff 25 32 43 20 00    	jmpq   *0x204332(%rip)        # 6050f8 <_GLOBAL_OFFSET_TABLE_+0xf8>
  400dc6:	68 1c 00 00 00       	pushq  $0x1c
  400dcb:	e9 20 fe ff ff       	jmpq   400bf0 <_init+0x28>

0000000000400dd0 <gethostname@plt>:
  400dd0:	ff 25 2a 43 20 00    	jmpq   *0x20432a(%rip)        # 605100 <_GLOBAL_OFFSET_TABLE_+0x100>
  400dd6:	68 1d 00 00 00       	pushq  $0x1d
  400ddb:	e9 10 fe ff ff       	jmpq   400bf0 <_init+0x28>

0000000000400de0 <sprintf@plt>:
  400de0:	ff 25 22 43 20 00    	jmpq   *0x204322(%rip)        # 605108 <_GLOBAL_OFFSET_TABLE_+0x108>
  400de6:	68 1e 00 00 00       	pushq  $0x1e
  400deb:	e9 00 fe ff ff       	jmpq   400bf0 <_init+0x28>

0000000000400df0 <exit@plt>:
  400df0:	ff 25 1a 43 20 00    	jmpq   *0x20431a(%rip)        # 605110 <_GLOBAL_OFFSET_TABLE_+0x110>
  400df6:	68 1f 00 00 00       	pushq  $0x1f
  400dfb:	e9 f0 fd ff ff       	jmpq   400bf0 <_init+0x28>

0000000000400e00 <connect@plt>:
  400e00:	ff 25 12 43 20 00    	jmpq   *0x204312(%rip)        # 605118 <_GLOBAL_OFFSET_TABLE_+0x118>
  400e06:	68 20 00 00 00       	pushq  $0x20
  400e0b:	e9 e0 fd ff ff       	jmpq   400bf0 <_init+0x28>

0000000000400e10 <socket@plt>:
  400e10:	ff 25 0a 43 20 00    	jmpq   *0x20430a(%rip)        # 605120 <_GLOBAL_OFFSET_TABLE_+0x120>
  400e16:	68 21 00 00 00       	pushq  $0x21
  400e1b:	e9 d0 fd ff ff       	jmpq   400bf0 <_init+0x28>

Disassembly of section .text:

0000000000400e20 <_start>:
  400e20:	31 ed                	xor    %ebp,%ebp
  400e22:	49 89 d1             	mov    %rdx,%r9
  400e25:	5e                   	pop    %rsi
  400e26:	48 89 e2             	mov    %rsp,%rdx
  400e29:	48 83 e4 f0          	and    $0xfffffffffffffff0,%rsp
  400e2d:	50                   	push   %rax
  400e2e:	54                   	push   %rsp
  400e2f:	49 c7 c0 80 2d 40 00 	mov    $0x402d80,%r8
  400e36:	48 c7 c1 10 2d 40 00 	mov    $0x402d10,%rcx
  400e3d:	48 c7 c7 da 10 40 00 	mov    $0x4010da,%rdi
  400e44:	e8 87 fe ff ff       	callq  400cd0 <__libc_start_main@plt>
  400e49:	f4                   	hlt    
  400e4a:	66 0f 1f 44 00 00    	nopw   0x0(%rax,%rax,1)

0000000000400e50 <deregister_tm_clones>:
  400e50:	b8 b7 54 60 00       	mov    $0x6054b7,%eax
  400e55:	55                   	push   %rbp
  400e56:	48 2d b0 54 60 00    	sub    $0x6054b0,%rax
  400e5c:	48 83 f8 0e          	cmp    $0xe,%rax
  400e60:	48 89 e5             	mov    %rsp,%rbp
  400e63:	77 02                	ja     400e67 <deregister_tm_clones+0x17>
  400e65:	5d                   	pop    %rbp
  400e66:	c3                   	retq   
  400e67:	b8 00 00 00 00       	mov    $0x0,%eax
  400e6c:	48 85 c0             	test   %rax,%rax
  400e6f:	74 f4                	je     400e65 <deregister_tm_clones+0x15>
  400e71:	5d                   	pop    %rbp
  400e72:	bf b0 54 60 00       	mov    $0x6054b0,%edi
  400e77:	ff e0                	jmpq   *%rax
  400e79:	0f 1f 80 00 00 00 00 	nopl   0x0(%rax)

0000000000400e80 <register_tm_clones>:
  400e80:	b8 b0 54 60 00       	mov    $0x6054b0,%eax
  400e85:	55                   	push   %rbp
  400e86:	48 2d b0 54 60 00    	sub    $0x6054b0,%rax
  400e8c:	48 c1 f8 03          	sar    $0x3,%rax
  400e90:	48 89 e5             	mov    %rsp,%rbp
  400e93:	48 89 c2             	mov    %rax,%rdx
  400e96:	48 c1 ea 3f          	shr    $0x3f,%rdx
  400e9a:	48 01 d0             	add    %rdx,%rax
  400e9d:	48 d1 f8             	sar    %rax
  400ea0:	75 02                	jne    400ea4 <register_tm_clones+0x24>
  400ea2:	5d                   	pop    %rbp
  400ea3:	c3                   	retq   
  400ea4:	ba 00 00 00 00       	mov    $0x0,%edx
  400ea9:	48 85 d2             	test   %rdx,%rdx
  400eac:	74 f4                	je     400ea2 <register_tm_clones+0x22>
  400eae:	5d                   	pop    %rbp
  400eaf:	48 89 c6             	mov    %rax,%rsi
  400eb2:	bf b0 54 60 00       	mov    $0x6054b0,%edi
  400eb7:	ff e2                	jmpq   *%rdx
  400eb9:	0f 1f 80 00 00 00 00 	nopl   0x0(%rax)

0000000000400ec0 <__do_global_dtors_aux>:
  400ec0:	80 3d 11 46 20 00 00 	cmpb   $0x0,0x204611(%rip)        # 6054d8 <completed.6345>
  400ec7:	75 11                	jne    400eda <__do_global_dtors_aux+0x1a>
  400ec9:	55                   	push   %rbp
  400eca:	48 89 e5             	mov    %rsp,%rbp
  400ecd:	e8 7e ff ff ff       	callq  400e50 <deregister_tm_clones>
  400ed2:	5d                   	pop    %rbp
  400ed3:	c6 05 fe 45 20 00 01 	movb   $0x1,0x2045fe(%rip)        # 6054d8 <completed.6345>
  400eda:	f3 c3                	repz retq 
  400edc:	0f 1f 40 00          	nopl   0x0(%rax)

0000000000400ee0 <frame_dummy>:
  400ee0:	48 83 3d 38 3f 20 00 	cmpq   $0x0,0x203f38(%rip)        # 604e20 <__JCR_END__>
  400ee7:	00 
  400ee8:	74 1e                	je     400f08 <frame_dummy+0x28>
  400eea:	b8 00 00 00 00       	mov    $0x0,%eax
  400eef:	48 85 c0             	test   %rax,%rax
  400ef2:	74 14                	je     400f08 <frame_dummy+0x28>
  400ef4:	55                   	push   %rbp
  400ef5:	bf 20 4e 60 00       	mov    $0x604e20,%edi
  400efa:	48 89 e5             	mov    %rsp,%rbp
  400efd:	ff d0                	callq  *%rax
  400eff:	5d                   	pop    %rbp
  400f00:	e9 7b ff ff ff       	jmpq   400e80 <register_tm_clones>
  400f05:	0f 1f 00             	nopl   (%rax)
  400f08:	e9 73 ff ff ff       	jmpq   400e80 <register_tm_clones>

0000000000400f0d <usage>:
  400f0d:	48 83 ec 08          	sub    $0x8,%rsp
  400f11:	48 89 fe             	mov    %rdi,%rsi
  400f14:	83 3d ed 45 20 00 00 	cmpl   $0x0,0x2045ed(%rip)        # 605508 <is_checker>
  400f1b:	74 39                	je     400f56 <usage+0x49>
  400f1d:	bf a0 2d 40 00       	mov    $0x402da0,%edi
  400f22:	b8 00 00 00 00       	mov    $0x0,%eax
  400f27:	e8 54 fd ff ff       	callq  400c80 <printf@plt>
  400f2c:	bf d8 2d 40 00       	mov    $0x402dd8,%edi
  400f31:	e8 1a fd ff ff       	callq  400c50 <puts@plt>
  400f36:	bf 50 2f 40 00       	mov    $0x402f50,%edi
  400f3b:	e8 10 fd ff ff       	callq  400c50 <puts@plt>
  400f40:	bf 00 2e 40 00       	mov    $0x402e00,%edi
  400f45:	e8 06 fd ff ff       	callq  400c50 <puts@plt>
  400f4a:	bf 6a 2f 40 00       	mov    $0x402f6a,%edi
  400f4f:	e8 fc fc ff ff       	callq  400c50 <puts@plt>
  400f54:	eb 2d                	jmp    400f83 <usage+0x76>
  400f56:	bf 86 2f 40 00       	mov    $0x402f86,%edi
  400f5b:	b8 00 00 00 00       	mov    $0x0,%eax
  400f60:	e8 1b fd ff ff       	callq  400c80 <printf@plt>
  400f65:	bf 28 2e 40 00       	mov    $0x402e28,%edi
  400f6a:	e8 e1 fc ff ff       	callq  400c50 <puts@plt>
  400f6f:	bf 50 2e 40 00       	mov    $0x402e50,%edi
  400f74:	e8 d7 fc ff ff       	callq  400c50 <puts@plt>
  400f79:	bf a4 2f 40 00       	mov    $0x402fa4,%edi
  400f7e:	e8 cd fc ff ff       	callq  400c50 <puts@plt>
  400f83:	bf 00 00 00 00       	mov    $0x0,%edi
  400f88:	e8 63 fe ff ff       	callq  400df0 <exit@plt>

0000000000400f8d <initialize_target>:
  400f8d:	55                   	push   %rbp
  400f8e:	53                   	push   %rbx
  400f8f:	48 81 ec 08 21 00 00 	sub    $0x2108,%rsp
  400f96:	89 f5                	mov    %esi,%ebp
  400f98:	89 3d 5a 45 20 00    	mov    %edi,0x20455a(%rip)        # 6054f8 <check_level>
  400f9e:	8b 3d c4 41 20 00    	mov    0x2041c4(%rip),%edi        # 605168 <target_id>
  400fa4:	e8 45 1d 00 00       	callq  402cee <gencookie>
  400fa9:	89 05 55 45 20 00    	mov    %eax,0x204555(%rip)        # 605504 <cookie>
  400faf:	89 c7                	mov    %eax,%edi
  400fb1:	e8 38 1d 00 00       	callq  402cee <gencookie>
  400fb6:	89 05 44 45 20 00    	mov    %eax,0x204544(%rip)        # 605500 <authkey>
  400fbc:	8b 05 a6 41 20 00    	mov    0x2041a6(%rip),%eax        # 605168 <target_id>
  400fc2:	8d 78 01             	lea    0x1(%rax),%edi
  400fc5:	e8 56 fc ff ff       	callq  400c20 <srandom@plt>
  400fca:	e8 81 fd ff ff       	callq  400d50 <random@plt>
  400fcf:	89 c7                	mov    %eax,%edi
  400fd1:	e8 c5 02 00 00       	callq  40129b <scramble>
  400fd6:	89 c3                	mov    %eax,%ebx
  400fd8:	ba 00 00 00 00       	mov    $0x0,%edx
  400fdd:	85 ed                	test   %ebp,%ebp
  400fdf:	74 18                	je     400ff9 <initialize_target+0x6c>
  400fe1:	bf 00 00 00 00       	mov    $0x0,%edi
  400fe6:	e8 55 fd ff ff       	callq  400d40 <time@plt>
  400feb:	89 c7                	mov    %eax,%edi
  400fed:	e8 2e fc ff ff       	callq  400c20 <srandom@plt>
  400ff2:	e8 59 fd ff ff       	callq  400d50 <random@plt>
  400ff7:	89 c2                	mov    %eax,%edx
  400ff9:	01 da                	add    %ebx,%edx
  400ffb:	0f b7 d2             	movzwl %dx,%edx
  400ffe:	8d 04 d5 00 01 00 00 	lea    0x100(,%rdx,8),%eax
  401005:	89 c0                	mov    %eax,%eax
  401007:	48 89 05 92 44 20 00 	mov    %rax,0x204492(%rip)        # 6054a0 <buf_offset>
  40100e:	c6 05 13 51 20 00 72 	movb   $0x72,0x205113(%rip)        # 606128 <target_prefix>
  401015:	83 3d 8c 44 20 00 00 	cmpl   $0x0,0x20448c(%rip)        # 6054a8 <notify>
  40101c:	0f 84 ae 00 00 00    	je     4010d0 <initialize_target+0x143>
  401022:	83 3d df 44 20 00 00 	cmpl   $0x0,0x2044df(%rip)        # 605508 <is_checker>
  401029:	0f 85 a1 00 00 00    	jne    4010d0 <initialize_target+0x143>
  40102f:	be 00 01 00 00       	mov    $0x100,%esi
  401034:	48 89 e7             	mov    %rsp,%rdi
  401037:	e8 94 fd ff ff       	callq  400dd0 <gethostname@plt>
  40103c:	85 c0                	test   %eax,%eax
  40103e:	75 13                	jne    401053 <initialize_target+0xc6>
  401040:	48 8b 3d 39 41 20 00 	mov    0x204139(%rip),%rdi        # 605180 <host_table>
  401047:	bb 88 51 60 00       	mov    $0x605188,%ebx
  40104c:	48 85 ff             	test   %rdi,%rdi
  40104f:	75 16                	jne    401067 <initialize_target+0xda>
  401051:	eb 50                	jmp    4010a3 <initialize_target+0x116>
  401053:	bf 80 2e 40 00       	mov    $0x402e80,%edi
  401058:	e8 f3 fb ff ff       	callq  400c50 <puts@plt>
  40105d:	bf 08 00 00 00       	mov    $0x8,%edi
  401062:	e8 89 fd ff ff       	callq  400df0 <exit@plt>
  401067:	48 89 e6             	mov    %rsp,%rsi
  40106a:	e8 91 fb ff ff       	callq  400c00 <strcasecmp@plt>
  40106f:	85 c0                	test   %eax,%eax
  401071:	74 4c                	je     4010bf <initialize_target+0x132>
  401073:	48 83 c3 08          	add    $0x8,%rbx
  401077:	48 8b 7b f8          	mov    -0x8(%rbx),%rdi
  40107b:	48 85 ff             	test   %rdi,%rdi
  40107e:	75 e7                	jne    401067 <initialize_target+0xda>
  401080:	eb 21                	jmp    4010a3 <initialize_target+0x116>
  401082:	48 8d b4 24 00 01 00 	lea    0x100(%rsp),%rsi
  401089:	00 
  40108a:	bf b8 2e 40 00       	mov    $0x402eb8,%edi
  40108f:	b8 00 00 00 00       	mov    $0x0,%eax
  401094:	e8 e7 fb ff ff       	callq  400c80 <printf@plt>
  401099:	bf 08 00 00 00       	mov    $0x8,%edi
  40109e:	e8 4d fd ff ff       	callq  400df0 <exit@plt>
  4010a3:	48 89 e6             	mov    %rsp,%rsi
  4010a6:	bf e0 2e 40 00       	mov    $0x402ee0,%edi
  4010ab:	b8 00 00 00 00       	mov    $0x0,%eax
  4010b0:	e8 cb fb ff ff       	callq  400c80 <printf@plt>
  4010b5:	bf 08 00 00 00       	mov    $0x8,%edi
  4010ba:	e8 31 fd ff ff       	callq  400df0 <exit@plt>
  4010bf:	48 8d bc 24 00 01 00 	lea    0x100(%rsp),%rdi
  4010c6:	00 
  4010c7:	e8 9e 19 00 00       	callq  402a6a <init_driver>
  4010cc:	85 c0                	test   %eax,%eax
  4010ce:	78 b2                	js     401082 <initialize_target+0xf5>
  4010d0:	48 81 c4 08 21 00 00 	add    $0x2108,%rsp
  4010d7:	5b                   	pop    %rbx
  4010d8:	5d                   	pop    %rbp
  4010d9:	c3                   	retq   

00000000004010da <main>:
  4010da:	41 56                	push   %r14
  4010dc:	41 55                	push   %r13
  4010de:	41 54                	push   %r12
  4010e0:	55                   	push   %rbp
  4010e1:	53                   	push   %rbx
  4010e2:	41 89 fc             	mov    %edi,%r12d
  4010e5:	48 89 f3             	mov    %rsi,%rbx
  4010e8:	be 76 1e 40 00       	mov    $0x401e76,%esi
  4010ed:	bf 0b 00 00 00       	mov    $0xb,%edi
  4010f2:	e8 e9 fb ff ff       	callq  400ce0 <signal@plt>
  4010f7:	be 28 1e 40 00       	mov    $0x401e28,%esi
  4010fc:	bf 07 00 00 00       	mov    $0x7,%edi
  401101:	e8 da fb ff ff       	callq  400ce0 <signal@plt>
  401106:	be c4 1e 40 00       	mov    $0x401ec4,%esi
  40110b:	bf 04 00 00 00       	mov    $0x4,%edi
  401110:	e8 cb fb ff ff       	callq  400ce0 <signal@plt>
  401115:	bd bd 2f 40 00       	mov    $0x402fbd,%ebp
  40111a:	83 3d e7 43 20 00 00 	cmpl   $0x0,0x2043e7(%rip)        # 605508 <is_checker>
  401121:	74 1e                	je     401141 <main+0x67>
  401123:	be 12 1f 40 00       	mov    $0x401f12,%esi
  401128:	bf 0e 00 00 00       	mov    $0xe,%edi
  40112d:	e8 ae fb ff ff       	callq  400ce0 <signal@plt>
  401132:	bf 05 00 00 00       	mov    $0x5,%edi
  401137:	e8 64 fb ff ff       	callq  400ca0 <alarm@plt>
  40113c:	bd c2 2f 40 00       	mov    $0x402fc2,%ebp
  401141:	48 8b 05 78 43 20 00 	mov    0x204378(%rip),%rax        # 6054c0 <stdin@@GLIBC_2.2.5>
  401148:	48 89 05 a1 43 20 00 	mov    %rax,0x2043a1(%rip)        # 6054f0 <infile>
  40114f:	41 bd 00 00 00 00    	mov    $0x0,%r13d
  401155:	41 be 00 00 00 00    	mov    $0x0,%r14d
  40115b:	e9 b9 00 00 00       	jmpq   401219 <main+0x13f>
  401160:	83 e8 61             	sub    $0x61,%eax
  401163:	3c 10                	cmp    $0x10,%al
  401165:	0f 87 93 00 00 00    	ja     4011fe <main+0x124>
  40116b:	0f b6 c0             	movzbl %al,%eax
  40116e:	ff 24 c5 08 30 40 00 	jmpq   *0x403008(,%rax,8)
  401175:	48 8b 3b             	mov    (%rbx),%rdi
  401178:	e8 90 fd ff ff       	callq  400f0d <usage>
  40117d:	be 71 31 40 00       	mov    $0x403171,%esi
  401182:	48 8b 3d 3f 43 20 00 	mov    0x20433f(%rip),%rdi        # 6054c8 <optarg@@GLIBC_2.2.5>
  401189:	e8 12 fc ff ff       	callq  400da0 <fopen@plt>
  40118e:	48 89 05 5b 43 20 00 	mov    %rax,0x20435b(%rip)        # 6054f0 <infile>
  401195:	48 85 c0             	test   %rax,%rax
  401198:	75 7f                	jne    401219 <main+0x13f>
  40119a:	48 8b 15 27 43 20 00 	mov    0x204327(%rip),%rdx        # 6054c8 <optarg@@GLIBC_2.2.5>
  4011a1:	be ca 2f 40 00       	mov    $0x402fca,%esi
  4011a6:	48 8b 3d 23 43 20 00 	mov    0x204323(%rip),%rdi        # 6054d0 <stderr@@GLIBC_2.2.5>
  4011ad:	e8 4e fb ff ff       	callq  400d00 <fprintf@plt>
  4011b2:	b8 01 00 00 00       	mov    $0x1,%eax
  4011b7:	e9 d6 00 00 00       	jmpq   401292 <main+0x1b8>
  4011bc:	ba 10 00 00 00       	mov    $0x10,%edx
  4011c1:	be 00 00 00 00       	mov    $0x0,%esi
  4011c6:	48 8b 3d fb 42 20 00 	mov    0x2042fb(%rip),%rdi        # 6054c8 <optarg@@GLIBC_2.2.5>
  4011cd:	e8 ee fb ff ff       	callq  400dc0 <strtoul@plt>
  4011d2:	41 89 c6             	mov    %eax,%r14d
  4011d5:	eb 42                	jmp    401219 <main+0x13f>
  4011d7:	ba 0a 00 00 00       	mov    $0xa,%edx
  4011dc:	be 00 00 00 00       	mov    $0x0,%esi
  4011e1:	48 8b 3d e0 42 20 00 	mov    0x2042e0(%rip),%rdi        # 6054c8 <optarg@@GLIBC_2.2.5>
  4011e8:	e8 33 fb ff ff       	callq  400d20 <strtol@plt>
  4011ed:	41 89 c5             	mov    %eax,%r13d
  4011f0:	eb 27                	jmp    401219 <main+0x13f>
  4011f2:	c7 05 ac 42 20 00 00 	movl   $0x0,0x2042ac(%rip)        # 6054a8 <notify>
  4011f9:	00 00 00 
  4011fc:	eb 1b                	jmp    401219 <main+0x13f>
  4011fe:	40 0f be f6          	movsbl %sil,%esi
  401202:	bf e7 2f 40 00       	mov    $0x402fe7,%edi
  401207:	b8 00 00 00 00       	mov    $0x0,%eax
  40120c:	e8 6f fa ff ff       	callq  400c80 <printf@plt>
  401211:	48 8b 3b             	mov    (%rbx),%rdi
  401214:	e8 f4 fc ff ff       	callq  400f0d <usage>
  401219:	48 89 ea             	mov    %rbp,%rdx
  40121c:	48 89 de             	mov    %rbx,%rsi
  40121f:	44 89 e7             	mov    %r12d,%edi
  401222:	e8 89 fb ff ff       	callq  400db0 <getopt@plt>
  401227:	89 c6                	mov    %eax,%esi
  401229:	3c ff                	cmp    $0xff,%al
  40122b:	0f 85 2f ff ff ff    	jne    401160 <main+0x86>
  401231:	be 01 00 00 00       	mov    $0x1,%esi
  401236:	44 89 ef             	mov    %r13d,%edi
  401239:	e8 4f fd ff ff       	callq  400f8d <initialize_target>
  40123e:	83 3d c3 42 20 00 00 	cmpl   $0x0,0x2042c3(%rip)        # 605508 <is_checker>
  401245:	74 25                	je     40126c <main+0x192>
  401247:	44 3b 35 b2 42 20 00 	cmp    0x2042b2(%rip),%r14d        # 605500 <authkey>
  40124e:	74 1c                	je     40126c <main+0x192>
  401250:	44 89 f6             	mov    %r14d,%esi
  401253:	bf 20 2f 40 00       	mov    $0x402f20,%edi
  401258:	b8 00 00 00 00       	mov    $0x0,%eax
  40125d:	e8 1e fa ff ff       	callq  400c80 <printf@plt>
  401262:	b8 00 00 00 00       	mov    $0x0,%eax
  401267:	e8 22 08 00 00       	callq  401a8e <check_fail>
  40126c:	8b 35 92 42 20 00    	mov    0x204292(%rip),%esi        # 605504 <cookie>
  401272:	bf fa 2f 40 00       	mov    $0x402ffa,%edi
  401277:	b8 00 00 00 00       	mov    $0x0,%eax
  40127c:	e8 ff f9 ff ff       	callq  400c80 <printf@plt>
  401281:	48 8b 3d 18 42 20 00 	mov    0x204218(%rip),%rdi        # 6054a0 <buf_offset>
  401288:	e8 d3 0c 00 00       	callq  401f60 <launch>
  40128d:	b8 00 00 00 00       	mov    $0x0,%eax
  401292:	5b                   	pop    %rbx
  401293:	5d                   	pop    %rbp
  401294:	41 5c                	pop    %r12
  401296:	41 5d                	pop    %r13
  401298:	41 5e                	pop    %r14
  40129a:	c3                   	retq   

000000000040129b <scramble>:
  40129b:	b8 00 00 00 00       	mov    $0x0,%eax
  4012a0:	89 c2                	mov    %eax,%edx
  4012a2:	89 7c 94 d0          	mov    %edi,-0x30(%rsp,%rdx,4)
  4012a6:	83 c0 01             	add    $0x1,%eax
  4012a9:	81 c7 92 be 00 00    	add    $0xbe92,%edi
  4012af:	83 f8 0a             	cmp    $0xa,%eax
  4012b2:	75 ec                	jne    4012a0 <scramble+0x5>
  4012b4:	8b 44 24 f0          	mov    -0x10(%rsp),%eax
  4012b8:	69 c0 b2 36 00 00    	imul   $0x36b2,%eax,%eax
  4012be:	89 44 24 f0          	mov    %eax,-0x10(%rsp)
  4012c2:	8b 44 24 e4          	mov    -0x1c(%rsp),%eax
  4012c6:	69 c0 3b 4d 00 00    	imul   $0x4d3b,%eax,%eax
  4012cc:	89 44 24 e4          	mov    %eax,-0x1c(%rsp)
  4012d0:	8b 44 24 dc          	mov    -0x24(%rsp),%eax
  4012d4:	69 c0 85 41 00 00    	imul   $0x4185,%eax,%eax
  4012da:	89 44 24 dc          	mov    %eax,-0x24(%rsp)
  4012de:	8b 44 24 e0          	mov    -0x20(%rsp),%eax
  4012e2:	69 c0 81 51 00 00    	imul   $0x5181,%eax,%eax
  4012e8:	89 44 24 e0          	mov    %eax,-0x20(%rsp)
  4012ec:	8b 44 24 f4          	mov    -0xc(%rsp),%eax
  4012f0:	69 c0 da f0 00 00    	imul   $0xf0da,%eax,%eax
  4012f6:	89 44 24 f4          	mov    %eax,-0xc(%rsp)
  4012fa:	8b 44 24 e0          	mov    -0x20(%rsp),%eax
  4012fe:	69 c0 65 e1 00 00    	imul   $0xe165,%eax,%eax
  401304:	89 44 24 e0          	mov    %eax,-0x20(%rsp)
  401308:	8b 44 24 e0          	mov    -0x20(%rsp),%eax
  40130c:	69 c0 78 8e 00 00    	imul   $0x8e78,%eax,%eax
  401312:	89 44 24 e0          	mov    %eax,-0x20(%rsp)
  401316:	8b 44 24 ec          	mov    -0x14(%rsp),%eax
  40131a:	69 c0 9b 2b 00 00    	imul   $0x2b9b,%eax,%eax
  401320:	89 44 24 ec          	mov    %eax,-0x14(%rsp)
  401324:	8b 44 24 d0          	mov    -0x30(%rsp),%eax
  401328:	69 c0 2f a9 00 00    	imul   $0xa92f,%eax,%eax
  40132e:	89 44 24 d0          	mov    %eax,-0x30(%rsp)
  401332:	8b 44 24 f0          	mov    -0x10(%rsp),%eax
  401336:	69 c0 7e d9 00 00    	imul   $0xd97e,%eax,%eax
  40133c:	89 44 24 f0          	mov    %eax,-0x10(%rsp)
  401340:	8b 44 24 e0          	mov    -0x20(%rsp),%eax
  401344:	69 c0 5c 20 00 00    	imul   $0x205c,%eax,%eax
  40134a:	89 44 24 e0          	mov    %eax,-0x20(%rsp)
  40134e:	8b 44 24 d8          	mov    -0x28(%rsp),%eax
  401352:	69 c0 a6 84 00 00    	imul   $0x84a6,%eax,%eax
  401358:	89 44 24 d8          	mov    %eax,-0x28(%rsp)
  40135c:	8b 44 24 e8          	mov    -0x18(%rsp),%eax
  401360:	69 c0 fb 98 00 00    	imul   $0x98fb,%eax,%eax
  401366:	89 44 24 e8          	mov    %eax,-0x18(%rsp)
  40136a:	8b 44 24 ec          	mov    -0x14(%rsp),%eax
  40136e:	69 c0 9a 0e 00 00    	imul   $0xe9a,%eax,%eax
  401374:	89 44 24 ec          	mov    %eax,-0x14(%rsp)
  401378:	8b 44 24 d0          	mov    -0x30(%rsp),%eax
  40137c:	69 c0 dc 6e 00 00    	imul   $0x6edc,%eax,%eax
  401382:	89 44 24 d0          	mov    %eax,-0x30(%rsp)
  401386:	8b 44 24 dc          	mov    -0x24(%rsp),%eax
  40138a:	89 c2                	mov    %eax,%edx
  40138c:	c1 e2 07             	shl    $0x7,%edx
  40138f:	29 c2                	sub    %eax,%edx
  401391:	89 54 24 dc          	mov    %edx,-0x24(%rsp)
  401395:	8b 44 24 ec          	mov    -0x14(%rsp),%eax
  401399:	69 c0 2a 7e 00 00    	imul   $0x7e2a,%eax,%eax
  40139f:	89 44 24 ec          	mov    %eax,-0x14(%rsp)
  4013a3:	8b 44 24 f4          	mov    -0xc(%rsp),%eax
  4013a7:	69 c0 86 0b 00 00    	imul   $0xb86,%eax,%eax
  4013ad:	89 44 24 f4          	mov    %eax,-0xc(%rsp)
  4013b1:	8b 44 24 ec          	mov    -0x14(%rsp),%eax
  4013b5:	69 c0 54 94 00 00    	imul   $0x9454,%eax,%eax
  4013bb:	89 44 24 ec          	mov    %eax,-0x14(%rsp)
  4013bf:	8b 44 24 d0          	mov    -0x30(%rsp),%eax
  4013c3:	69 c0 28 fb 00 00    	imul   $0xfb28,%eax,%eax
  4013c9:	89 44 24 d0          	mov    %eax,-0x30(%rsp)
  4013cd:	8b 44 24 dc          	mov    -0x24(%rsp),%eax
  4013d1:	69 c0 c5 42 00 00    	imul   $0x42c5,%eax,%eax
  4013d7:	89 44 24 dc          	mov    %eax,-0x24(%rsp)
  4013db:	8b 44 24 ec          	mov    -0x14(%rsp),%eax
  4013df:	69 c0 4c f4 00 00    	imul   $0xf44c,%eax,%eax
  4013e5:	89 44 24 ec          	mov    %eax,-0x14(%rsp)
  4013e9:	8b 44 24 e0          	mov    -0x20(%rsp),%eax
  4013ed:	69 c0 f5 18 00 00    	imul   $0x18f5,%eax,%eax
  4013f3:	89 44 24 e0          	mov    %eax,-0x20(%rsp)
  4013f7:	8b 44 24 ec          	mov    -0x14(%rsp),%eax
  4013fb:	69 c0 00 0e 00 00    	imul   $0xe00,%eax,%eax
  401401:	89 44 24 ec          	mov    %eax,-0x14(%rsp)
  401405:	8b 44 24 f0          	mov    -0x10(%rsp),%eax
  401409:	69 c0 04 49 00 00    	imul   $0x4904,%eax,%eax
  40140f:	89 44 24 f0          	mov    %eax,-0x10(%rsp)
  401413:	8b 44 24 e8          	mov    -0x18(%rsp),%eax
  401417:	69 c0 e5 00 00 00    	imul   $0xe5,%eax,%eax
  40141d:	89 44 24 e8          	mov    %eax,-0x18(%rsp)
  401421:	8b 44 24 e4          	mov    -0x1c(%rsp),%eax
  401425:	69 c0 51 c9 00 00    	imul   $0xc951,%eax,%eax
  40142b:	89 44 24 e4          	mov    %eax,-0x1c(%rsp)
  40142f:	8b 44 24 e8          	mov    -0x18(%rsp),%eax
  401433:	69 c0 48 fa 00 00    	imul   $0xfa48,%eax,%eax
  401439:	89 44 24 e8          	mov    %eax,-0x18(%rsp)
  40143d:	8b 44 24 f0          	mov    -0x10(%rsp),%eax
  401441:	69 c0 4e a5 00 00    	imul   $0xa54e,%eax,%eax
  401447:	89 44 24 f0          	mov    %eax,-0x10(%rsp)
  40144b:	8b 44 24 e0          	mov    -0x20(%rsp),%eax
  40144f:	69 c0 39 a4 00 00    	imul   $0xa439,%eax,%eax
  401455:	89 44 24 e0          	mov    %eax,-0x20(%rsp)
  401459:	8b 44 24 f4          	mov    -0xc(%rsp),%eax
  40145d:	69 c0 4d a4 00 00    	imul   $0xa44d,%eax,%eax
  401463:	89 44 24 f4          	mov    %eax,-0xc(%rsp)
  401467:	8b 44 24 dc          	mov    -0x24(%rsp),%eax
  40146b:	69 c0 b9 b9 00 00    	imul   $0xb9b9,%eax,%eax
  401471:	89 44 24 dc          	mov    %eax,-0x24(%rsp)
  401475:	8b 44 24 d0          	mov    -0x30(%rsp),%eax
  401479:	69 c0 74 f2 00 00    	imul   $0xf274,%eax,%eax
  40147f:	89 44 24 d0          	mov    %eax,-0x30(%rsp)
  401483:	8b 44 24 d0          	mov    -0x30(%rsp),%eax
  401487:	69 c0 27 e2 00 00    	imul   $0xe227,%eax,%eax
  40148d:	89 44 24 d0          	mov    %eax,-0x30(%rsp)
  401491:	8b 44 24 d4          	mov    -0x2c(%rsp),%eax
  401495:	69 c0 47 22 00 00    	imul   $0x2247,%eax,%eax
  40149b:	89 44 24 d4          	mov    %eax,-0x2c(%rsp)
  40149f:	8b 44 24 f0          	mov    -0x10(%rsp),%eax
  4014a3:	69 c0 f6 0b 00 00    	imul   $0xbf6,%eax,%eax
  4014a9:	89 44 24 f0          	mov    %eax,-0x10(%rsp)
  4014ad:	8b 44 24 e8          	mov    -0x18(%rsp),%eax
  4014b1:	69 c0 dc b9 00 00    	imul   $0xb9dc,%eax,%eax
  4014b7:	89 44 24 e8          	mov    %eax,-0x18(%rsp)
  4014bb:	8b 44 24 e8          	mov    -0x18(%rsp),%eax
  4014bf:	69 c0 4a 36 00 00    	imul   $0x364a,%eax,%eax
  4014c5:	89 44 24 e8          	mov    %eax,-0x18(%rsp)
  4014c9:	8b 44 24 d8          	mov    -0x28(%rsp),%eax
  4014cd:	69 c0 2a 20 00 00    	imul   $0x202a,%eax,%eax
  4014d3:	89 44 24 d8          	mov    %eax,-0x28(%rsp)
  4014d7:	8b 44 24 e8          	mov    -0x18(%rsp),%eax
  4014db:	69 c0 f7 94 00 00    	imul   $0x94f7,%eax,%eax
  4014e1:	89 44 24 e8          	mov    %eax,-0x18(%rsp)
  4014e5:	8b 44 24 d8          	mov    -0x28(%rsp),%eax
  4014e9:	69 c0 c9 2b 00 00    	imul   $0x2bc9,%eax,%eax
  4014ef:	89 44 24 d8          	mov    %eax,-0x28(%rsp)
  4014f3:	8b 44 24 e8          	mov    -0x18(%rsp),%eax
  4014f7:	69 c0 8e d2 00 00    	imul   $0xd28e,%eax,%eax
  4014fd:	89 44 24 e8          	mov    %eax,-0x18(%rsp)
  401501:	8b 44 24 dc          	mov    -0x24(%rsp),%eax
  401505:	69 c0 67 1b 00 00    	imul   $0x1b67,%eax,%eax
  40150b:	89 44 24 dc          	mov    %eax,-0x24(%rsp)
  40150f:	8b 44 24 e4          	mov    -0x1c(%rsp),%eax
  401513:	69 c0 66 57 00 00    	imul   $0x5766,%eax,%eax
  401519:	89 44 24 e4          	mov    %eax,-0x1c(%rsp)
  40151d:	8b 44 24 d0          	mov    -0x30(%rsp),%eax
  401521:	69 c0 b9 d5 00 00    	imul   $0xd5b9,%eax,%eax
  401527:	89 44 24 d0          	mov    %eax,-0x30(%rsp)
  40152b:	8b 44 24 e0          	mov    -0x20(%rsp),%eax
  40152f:	69 c0 e0 d4 00 00    	imul   $0xd4e0,%eax,%eax
  401535:	89 44 24 e0          	mov    %eax,-0x20(%rsp)
  401539:	8b 44 24 d4          	mov    -0x2c(%rsp),%eax
  40153d:	69 c0 59 a0 00 00    	imul   $0xa059,%eax,%eax
  401543:	89 44 24 d4          	mov    %eax,-0x2c(%rsp)
  401547:	8b 44 24 ec          	mov    -0x14(%rsp),%eax
  40154b:	69 c0 7e 9c 00 00    	imul   $0x9c7e,%eax,%eax
  401551:	89 44 24 ec          	mov    %eax,-0x14(%rsp)
  401555:	8b 44 24 dc          	mov    -0x24(%rsp),%eax
  401559:	69 c0 d9 53 00 00    	imul   $0x53d9,%eax,%eax
  40155f:	89 44 24 dc          	mov    %eax,-0x24(%rsp)
  401563:	8b 44 24 d4          	mov    -0x2c(%rsp),%eax
  401567:	69 c0 95 19 00 00    	imul   $0x1995,%eax,%eax
  40156d:	89 44 24 d4          	mov    %eax,-0x2c(%rsp)
  401571:	8b 44 24 ec          	mov    -0x14(%rsp),%eax
  401575:	69 c0 f4 5b 00 00    	imul   $0x5bf4,%eax,%eax
  40157b:	89 44 24 ec          	mov    %eax,-0x14(%rsp)
  40157f:	8b 44 24 d8          	mov    -0x28(%rsp),%eax
  401583:	69 c0 2d db 00 00    	imul   $0xdb2d,%eax,%eax
  401589:	89 44 24 d8          	mov    %eax,-0x28(%rsp)
  40158d:	8b 44 24 ec          	mov    -0x14(%rsp),%eax
  401591:	69 c0 cd 25 00 00    	imul   $0x25cd,%eax,%eax
  401597:	89 44 24 ec          	mov    %eax,-0x14(%rsp)
  40159b:	8b 44 24 e8          	mov    -0x18(%rsp),%eax
  40159f:	69 c0 a2 e8 00 00    	imul   $0xe8a2,%eax,%eax
  4015a5:	89 44 24 e8          	mov    %eax,-0x18(%rsp)
  4015a9:	8b 44 24 e4          	mov    -0x1c(%rsp),%eax
  4015ad:	69 c0 c2 55 00 00    	imul   $0x55c2,%eax,%eax
  4015b3:	89 44 24 e4          	mov    %eax,-0x1c(%rsp)
  4015b7:	8b 44 24 dc          	mov    -0x24(%rsp),%eax
  4015bb:	69 c0 26 af 00 00    	imul   $0xaf26,%eax,%eax
  4015c1:	89 44 24 dc          	mov    %eax,-0x24(%rsp)
  4015c5:	8b 44 24 ec          	mov    -0x14(%rsp),%eax
  4015c9:	69 c0 75 13 00 00    	imul   $0x1375,%eax,%eax
  4015cf:	89 44 24 ec          	mov    %eax,-0x14(%rsp)
  4015d3:	8b 44 24 f4          	mov    -0xc(%rsp),%eax
  4015d7:	69 c0 a5 76 00 00    	imul   $0x76a5,%eax,%eax
  4015dd:	89 44 24 f4          	mov    %eax,-0xc(%rsp)
  4015e1:	8b 44 24 e4          	mov    -0x1c(%rsp),%eax
  4015e5:	69 c0 8c 4e 00 00    	imul   $0x4e8c,%eax,%eax
  4015eb:	89 44 24 e4          	mov    %eax,-0x1c(%rsp)
  4015ef:	8b 44 24 dc          	mov    -0x24(%rsp),%eax
  4015f3:	69 c0 92 ef 00 00    	imul   $0xef92,%eax,%eax
  4015f9:	89 44 24 dc          	mov    %eax,-0x24(%rsp)
  4015fd:	8b 44 24 e8          	mov    -0x18(%rsp),%eax
  401601:	69 c0 ab c9 00 00    	imul   $0xc9ab,%eax,%eax
  401607:	89 44 24 e8          	mov    %eax,-0x18(%rsp)
  40160b:	8b 44 24 e0          	mov    -0x20(%rsp),%eax
  40160f:	69 c0 4c 9e 00 00    	imul   $0x9e4c,%eax,%eax
  401615:	89 44 24 e0          	mov    %eax,-0x20(%rsp)
  401619:	8b 44 24 f0          	mov    -0x10(%rsp),%eax
  40161d:	69 c0 0c 53 00 00    	imul   $0x530c,%eax,%eax
  401623:	89 44 24 f0          	mov    %eax,-0x10(%rsp)
  401627:	8b 44 24 d4          	mov    -0x2c(%rsp),%eax
  40162b:	69 c0 d1 fc 00 00    	imul   $0xfcd1,%eax,%eax
  401631:	89 44 24 d4          	mov    %eax,-0x2c(%rsp)
  401635:	8b 44 24 d0          	mov    -0x30(%rsp),%eax
  401639:	69 c0 6f b9 00 00    	imul   $0xb96f,%eax,%eax
  40163f:	89 44 24 d0          	mov    %eax,-0x30(%rsp)
  401643:	8b 44 24 ec          	mov    -0x14(%rsp),%eax
  401647:	69 c0 06 1d 00 00    	imul   $0x1d06,%eax,%eax
  40164d:	89 44 24 ec          	mov    %eax,-0x14(%rsp)
  401651:	8b 44 24 e0          	mov    -0x20(%rsp),%eax
  401655:	69 c0 f1 3b 00 00    	imul   $0x3bf1,%eax,%eax
  40165b:	89 44 24 e0          	mov    %eax,-0x20(%rsp)
  40165f:	8b 44 24 e4          	mov    -0x1c(%rsp),%eax
  401663:	69 c0 33 2b 00 00    	imul   $0x2b33,%eax,%eax
  401669:	89 44 24 e4          	mov    %eax,-0x1c(%rsp)
  40166d:	8b 44 24 d0          	mov    -0x30(%rsp),%eax
  401671:	69 c0 ab 09 00 00    	imul   $0x9ab,%eax,%eax
  401677:	89 44 24 d0          	mov    %eax,-0x30(%rsp)
  40167b:	8b 44 24 d4          	mov    -0x2c(%rsp),%eax
  40167f:	69 c0 b7 a7 00 00    	imul   $0xa7b7,%eax,%eax
  401685:	89 44 24 d4          	mov    %eax,-0x2c(%rsp)
  401689:	8b 44 24 e4          	mov    -0x1c(%rsp),%eax
  40168d:	69 c0 6f 91 00 00    	imul   $0x916f,%eax,%eax
  401693:	89 44 24 e4          	mov    %eax,-0x1c(%rsp)
  401697:	8b 44 24 e4          	mov    -0x1c(%rsp),%eax
  40169b:	69 c0 f8 e0 00 00    	imul   $0xe0f8,%eax,%eax
  4016a1:	89 44 24 e4          	mov    %eax,-0x1c(%rsp)
  4016a5:	8b 44 24 ec          	mov    -0x14(%rsp),%eax
  4016a9:	69 c0 92 d8 00 00    	imul   $0xd892,%eax,%eax
  4016af:	89 44 24 ec          	mov    %eax,-0x14(%rsp)
  4016b3:	8b 44 24 e0          	mov    -0x20(%rsp),%eax
  4016b7:	69 c0 c2 d3 00 00    	imul   $0xd3c2,%eax,%eax
  4016bd:	89 44 24 e0          	mov    %eax,-0x20(%rsp)
  4016c1:	8b 44 24 d8          	mov    -0x28(%rsp),%eax
  4016c5:	69 c0 a9 25 00 00    	imul   $0x25a9,%eax,%eax
  4016cb:	89 44 24 d8          	mov    %eax,-0x28(%rsp)
  4016cf:	8b 44 24 f0          	mov    -0x10(%rsp),%eax
  4016d3:	69 c0 64 4b 00 00    	imul   $0x4b64,%eax,%eax
  4016d9:	89 44 24 f0          	mov    %eax,-0x10(%rsp)
  4016dd:	8b 44 24 f0          	mov    -0x10(%rsp),%eax
  4016e1:	69 c0 c7 87 00 00    	imul   $0x87c7,%eax,%eax
  4016e7:	89 44 24 f0          	mov    %eax,-0x10(%rsp)
  4016eb:	8b 44 24 d4          	mov    -0x2c(%rsp),%eax
  4016ef:	69 c0 59 59 00 00    	imul   $0x5959,%eax,%eax
  4016f5:	89 44 24 d4          	mov    %eax,-0x2c(%rsp)
  4016f9:	8b 44 24 f0          	mov    -0x10(%rsp),%eax
  4016fd:	69 c0 7a 24 00 00    	imul   $0x247a,%eax,%eax
  401703:	89 44 24 f0          	mov    %eax,-0x10(%rsp)
  401707:	8b 44 24 d4          	mov    -0x2c(%rsp),%eax
  40170b:	69 c0 b8 81 00 00    	imul   $0x81b8,%eax,%eax
  401711:	89 44 24 d4          	mov    %eax,-0x2c(%rsp)
  401715:	8b 44 24 ec          	mov    -0x14(%rsp),%eax
  401719:	69 c0 91 6c 00 00    	imul   $0x6c91,%eax,%eax
  40171f:	89 44 24 ec          	mov    %eax,-0x14(%rsp)
  401723:	8b 44 24 d0          	mov    -0x30(%rsp),%eax
  401727:	69 c0 4c f3 00 00    	imul   $0xf34c,%eax,%eax
  40172d:	89 44 24 d0          	mov    %eax,-0x30(%rsp)
  401731:	8b 44 24 d4          	mov    -0x2c(%rsp),%eax
  401735:	69 c0 f3 96 00 00    	imul   $0x96f3,%eax,%eax
  40173b:	89 44 24 d4          	mov    %eax,-0x2c(%rsp)
  40173f:	8b 44 24 e0          	mov    -0x20(%rsp),%eax
  401743:	69 c0 41 0a 00 00    	imul   $0xa41,%eax,%eax
  401749:	89 44 24 e0          	mov    %eax,-0x20(%rsp)
  40174d:	8b 44 24 f0          	mov    -0x10(%rsp),%eax
  401751:	69 c0 55 32 00 00    	imul   $0x3255,%eax,%eax
  401757:	89 44 24 f0          	mov    %eax,-0x10(%rsp)
  40175b:	8b 44 24 f4          	mov    -0xc(%rsp),%eax
  40175f:	8d 04 40             	lea    (%rax,%rax,2),%eax
  401762:	c1 e0 02             	shl    $0x2,%eax
  401765:	89 44 24 f4          	mov    %eax,-0xc(%rsp)
  401769:	8b 44 24 e0          	mov    -0x20(%rsp),%eax
  40176d:	69 c0 d6 08 00 00    	imul   $0x8d6,%eax,%eax
  401773:	89 44 24 e0          	mov    %eax,-0x20(%rsp)
  401777:	8b 44 24 f0          	mov    -0x10(%rsp),%eax
  40177b:	69 c0 aa 68 00 00    	imul   $0x68aa,%eax,%eax
  401781:	89 44 24 f0          	mov    %eax,-0x10(%rsp)
  401785:	8b 44 24 e0          	mov    -0x20(%rsp),%eax
  401789:	69 c0 a2 38 00 00    	imul   $0x38a2,%eax,%eax
  40178f:	89 44 24 e0          	mov    %eax,-0x20(%rsp)
  401793:	8b 44 24 e4          	mov    -0x1c(%rsp),%eax
  401797:	69 c0 87 08 00 00    	imul   $0x887,%eax,%eax
  40179d:	89 44 24 e4          	mov    %eax,-0x1c(%rsp)
  4017a1:	8b 44 24 dc          	mov    -0x24(%rsp),%eax
  4017a5:	69 c0 c0 ff 00 00    	imul   $0xffc0,%eax,%eax
  4017ab:	89 44 24 dc          	mov    %eax,-0x24(%rsp)
  4017af:	ba 00 00 00 00       	mov    $0x0,%edx
  4017b4:	b8 00 00 00 00       	mov    $0x0,%eax
  4017b9:	89 d1                	mov    %edx,%ecx
  4017bb:	8b 4c 8c d0          	mov    -0x30(%rsp,%rcx,4),%ecx
  4017bf:	01 c8                	add    %ecx,%eax
  4017c1:	83 c2 01             	add    $0x1,%edx
  4017c4:	83 fa 0a             	cmp    $0xa,%edx
  4017c7:	75 f0                	jne    4017b9 <scramble+0x51e>
  4017c9:	f3 c3                	repz retq 

00000000004017cb <getbuf>:
  4017cb:	48 83 ec 38          	sub    $0x38,%rsp
  4017cf:	48 89 e7             	mov    %rsp,%rdi
  4017d2:	e8 e6 02 00 00       	callq  401abd <Gets>
  4017d7:	b8 01 00 00 00       	mov    $0x1,%eax
  4017dc:	48 83 c4 38          	add    $0x38,%rsp
  4017e0:	c3                   	retq   

00000000004017e1 <touch1>:
  4017e1:	48 83 ec 08          	sub    $0x8,%rsp
  4017e5:	c7 05 0d 3d 20 00 01 	movl   $0x1,0x203d0d(%rip)        # 6054fc <vlevel>
  4017ec:	00 00 00 
  4017ef:	bf 0b 32 40 00       	mov    $0x40320b,%edi
  4017f4:	e8 57 f4 ff ff       	callq  400c50 <puts@plt>
  4017f9:	bf 01 00 00 00       	mov    $0x1,%edi
  4017fe:	e8 41 05 00 00       	callq  401d44 <validate>
  401803:	bf 00 00 00 00       	mov    $0x0,%edi
  401808:	e8 e3 f5 ff ff       	callq  400df0 <exit@plt>

000000000040180d <touch2>:
  40180d:	48 83 ec 08          	sub    $0x8,%rsp
  401811:	89 fe                	mov    %edi,%esi
  401813:	c7 05 df 3c 20 00 02 	movl   $0x2,0x203cdf(%rip)        # 6054fc <vlevel>
  40181a:	00 00 00 
  40181d:	3b 3d e1 3c 20 00    	cmp    0x203ce1(%rip),%edi        # 605504 <cookie>
  401823:	75 1b                	jne    401840 <touch2+0x33>
  401825:	bf 30 32 40 00       	mov    $0x403230,%edi
  40182a:	b8 00 00 00 00       	mov    $0x0,%eax
  40182f:	e8 4c f4 ff ff       	callq  400c80 <printf@plt>
  401834:	bf 02 00 00 00       	mov    $0x2,%edi
  401839:	e8 06 05 00 00       	callq  401d44 <validate>
  40183e:	eb 19                	jmp    401859 <touch2+0x4c>
  401840:	bf 58 32 40 00       	mov    $0x403258,%edi
  401845:	b8 00 00 00 00       	mov    $0x0,%eax
  40184a:	e8 31 f4 ff ff       	callq  400c80 <printf@plt>
  40184f:	bf 02 00 00 00       	mov    $0x2,%edi
  401854:	e8 a7 05 00 00       	callq  401e00 <fail>
  401859:	bf 00 00 00 00       	mov    $0x0,%edi
  40185e:	e8 8d f5 ff ff       	callq  400df0 <exit@plt>

0000000000401863 <hexmatch>:
  401863:	41 54                	push   %r12
  401865:	55                   	push   %rbp
  401866:	53                   	push   %rbx
  401867:	48 83 ec 70          	sub    $0x70,%rsp
  40186b:	41 89 fc             	mov    %edi,%r12d
  40186e:	48 89 f5             	mov    %rsi,%rbp
  401871:	e8 da f4 ff ff       	callq  400d50 <random@plt>
  401876:	48 89 c1             	mov    %rax,%rcx
  401879:	48 ba 0b d7 a3 70 3d 	movabs $0xa3d70a3d70a3d70b,%rdx
  401880:	0a d7 a3 
  401883:	48 f7 ea             	imul   %rdx
  401886:	48 8d 04 0a          	lea    (%rdx,%rcx,1),%rax
  40188a:	48 c1 f8 06          	sar    $0x6,%rax
  40188e:	48 89 ce             	mov    %rcx,%rsi
  401891:	48 c1 fe 3f          	sar    $0x3f,%rsi
  401895:	48 29 f0             	sub    %rsi,%rax
  401898:	48 8d 04 80          	lea    (%rax,%rax,4),%rax
  40189c:	48 8d 04 80          	lea    (%rax,%rax,4),%rax
  4018a0:	48 c1 e0 02          	shl    $0x2,%rax
  4018a4:	48 29 c1             	sub    %rax,%rcx
  4018a7:	48 8d 1c 0c          	lea    (%rsp,%rcx,1),%rbx
  4018ab:	44 89 e2             	mov    %r12d,%edx
  4018ae:	be 28 32 40 00       	mov    $0x403228,%esi
  4018b3:	48 89 df             	mov    %rbx,%rdi
  4018b6:	b8 00 00 00 00       	mov    $0x0,%eax
  4018bb:	e8 20 f5 ff ff       	callq  400de0 <sprintf@plt>
  4018c0:	ba 09 00 00 00       	mov    $0x9,%edx
  4018c5:	48 89 de             	mov    %rbx,%rsi
  4018c8:	48 89 ef             	mov    %rbp,%rdi
  4018cb:	e8 60 f3 ff ff       	callq  400c30 <strncmp@plt>
  4018d0:	85 c0                	test   %eax,%eax
  4018d2:	0f 94 c0             	sete   %al
  4018d5:	0f b6 c0             	movzbl %al,%eax
  4018d8:	48 83 c4 70          	add    $0x70,%rsp
  4018dc:	5b                   	pop    %rbx
  4018dd:	5d                   	pop    %rbp
  4018de:	41 5c                	pop    %r12
  4018e0:	c3                   	retq   

00000000004018e1 <touch3>:
  4018e1:	53                   	push   %rbx
  4018e2:	48 89 fb             	mov    %rdi,%rbx
  4018e5:	c7 05 0d 3c 20 00 03 	movl   $0x3,0x203c0d(%rip)        # 6054fc <vlevel>
  4018ec:	00 00 00 
  4018ef:	48 89 fe             	mov    %rdi,%rsi
  4018f2:	8b 3d 0c 3c 20 00    	mov    0x203c0c(%rip),%edi        # 605504 <cookie>
  4018f8:	e8 66 ff ff ff       	callq  401863 <hexmatch>
  4018fd:	85 c0                	test   %eax,%eax
  4018ff:	74 1e                	je     40191f <touch3+0x3e>
  401901:	48 89 de             	mov    %rbx,%rsi
  401904:	bf 80 32 40 00       	mov    $0x403280,%edi
  401909:	b8 00 00 00 00       	mov    $0x0,%eax
  40190e:	e8 6d f3 ff ff       	callq  400c80 <printf@plt>
  401913:	bf 03 00 00 00       	mov    $0x3,%edi
  401918:	e8 27 04 00 00       	callq  401d44 <validate>
  40191d:	eb 1c                	jmp    40193b <touch3+0x5a>
  40191f:	48 89 de             	mov    %rbx,%rsi
  401922:	bf a8 32 40 00       	mov    $0x4032a8,%edi
  401927:	b8 00 00 00 00       	mov    $0x0,%eax
  40192c:	e8 4f f3 ff ff       	callq  400c80 <printf@plt>
  401931:	bf 03 00 00 00       	mov    $0x3,%edi
  401936:	e8 c5 04 00 00       	callq  401e00 <fail>
  40193b:	bf 00 00 00 00       	mov    $0x0,%edi
  401940:	e8 ab f4 ff ff       	callq  400df0 <exit@plt>

0000000000401945 <test>:
  401945:	48 83 ec 08          	sub    $0x8,%rsp
  401949:	b8 00 00 00 00       	mov    $0x0,%eax
  40194e:	e8 78 fe ff ff       	callq  4017cb <getbuf>
  401953:	89 c6                	mov    %eax,%esi
  401955:	bf d0 32 40 00       	mov    $0x4032d0,%edi
  40195a:	b8 00 00 00 00       	mov    $0x0,%eax
  40195f:	e8 1c f3 ff ff       	callq  400c80 <printf@plt>
  401964:	48 83 c4 08          	add    $0x8,%rsp
  401968:	c3                   	retq   

0000000000401969 <start_farm>:
  401969:	b8 01 00 00 00       	mov    $0x1,%eax
  40196e:	c3                   	retq   

000000000040196f <getval_457>:
  40196f:	b8 fb 48 8d c7       	mov    $0xc78d48fb,%eax
  401974:	c3                   	retq   

0000000000401975 <getval_298>:
  401975:	b8 0e 86 58 94       	mov    $0x9458860e,%eax
  40197a:	c3                   	retq   

000000000040197b <addval_289>:
  40197b:	8d 87 35 48 89 c7    	lea    -0x3876b7cb(%rdi),%eax
  401981:	c3                   	retq   

0000000000401982 <addval_225>:
  401982:	8d 87 a2 48 81 c7    	lea    -0x387eb75e(%rdi),%eax
  401988:	c3                   	retq   

0000000000401989 <addval_283>:
  401989:	8d 87 09 19 58 90    	lea    -0x6fa7e6f7(%rdi),%eax
  40198f:	c3                   	retq   

0000000000401990 <getval_497>:
  401990:	b8 d8 90 90 90       	mov    $0x909090d8,%eax
  401995:	c3                   	retq   

0000000000401996 <addval_312>:
  401996:	8d 87 48 89 c7 c3    	lea    -0x3c3876b8(%rdi),%eax
  40199c:	c3                   	retq   

000000000040199d <setval_394>:
  40199d:	c7 07 2b 0d 58 90    	movl   $0x90580d2b,(%rdi)
  4019a3:	c3                   	retq   

00000000004019a4 <mid_farm>:
  4019a4:	b8 01 00 00 00       	mov    $0x1,%eax
  4019a9:	c3                   	retq   

00000000004019aa <add_xy>:
  4019aa:	48 8d 04 37          	lea    (%rdi,%rsi,1),%rax
  4019ae:	c3                   	retq   

00000000004019af <addval_102>:
  4019af:	8d 87 89 ce 94 c9    	lea    -0x366b3177(%rdi),%eax
  4019b5:	c3                   	retq   

00000000004019b6 <setval_326>:
  4019b6:	c7 07 b2 36 89 d1    	movl   $0xd18936b2,(%rdi)
  4019bc:	c3                   	retq   

00000000004019bd <addval_350>:
  4019bd:	8d 87 4a 89 e0 c3    	lea    -0x3c1f76b6(%rdi),%eax
  4019c3:	c3                   	retq   

00000000004019c4 <setval_461>:
  4019c4:	c7 07 48 89 e0 c7    	movl   $0xc7e08948,(%rdi)
  4019ca:	c3                   	retq   

00000000004019cb <getval_113>:
  4019cb:	b8 88 c2 08 db       	mov    $0xdb08c288,%eax
  4019d0:	c3                   	retq   

00000000004019d1 <addval_487>:
  4019d1:	8d 87 89 ce 60 c0    	lea    -0x3f9f3177(%rdi),%eax
  4019d7:	c3                   	retq   

00000000004019d8 <addval_310>:
  4019d8:	8d 87 48 89 e0 c3    	lea    -0x3c1f76b8(%rdi),%eax
  4019de:	c3                   	retq   

00000000004019df <addval_335>:
  4019df:	8d 87 89 c2 30 c9    	lea    -0x36cf3d77(%rdi),%eax
  4019e5:	c3                   	retq   

00000000004019e6 <addval_199>:
  4019e6:	8d 87 48 89 e0 92    	lea    -0x6d1f76b8(%rdi),%eax
  4019ec:	c3                   	retq   

00000000004019ed <addval_183>:
  4019ed:	8d 87 89 d1 30 c9    	lea    -0x36cf2e77(%rdi),%eax
  4019f3:	c3                   	retq   

00000000004019f4 <setval_209>:
  4019f4:	c7 07 89 ce 28 c0    	movl   $0xc028ce89,(%rdi)
  4019fa:	c3                   	retq   

00000000004019fb <addval_489>:
  4019fb:	8d 87 89 c2 08 c0    	lea    -0x3ff73d77(%rdi),%eax
  401a01:	c3                   	retq   

0000000000401a02 <addval_343>:
  401a02:	8d 87 48 89 e0 c2    	lea    -0x3d1f76b8(%rdi),%eax
  401a08:	c3                   	retq   

0000000000401a09 <addval_481>:
  401a09:	8d 87 89 d1 90 c2    	lea    -0x3d6f2e77(%rdi),%eax
  401a0f:	c3                   	retq   

0000000000401a10 <addval_432>:
  401a10:	8d 87 c9 d1 c3 60    	lea    0x60c3d1c9(%rdi),%eax
  401a16:	c3                   	retq   

0000000000401a17 <getval_415>:
  401a17:	b8 89 c2 84 db       	mov    $0xdb84c289,%eax
  401a1c:	c3                   	retq   

0000000000401a1d <addval_157>:
  401a1d:	8d 87 89 c2 92 90    	lea    -0x6f6d3d77(%rdi),%eax
  401a23:	c3                   	retq   

0000000000401a24 <setval_321>:
  401a24:	c7 07 25 40 89 e0    	movl   $0xe0894025,(%rdi)
  401a2a:	c3                   	retq   

0000000000401a2b <addval_133>:
  401a2b:	8d 87 6b 48 89 e0    	lea    -0x1f76b795(%rdi),%eax
  401a31:	c3                   	retq   

0000000000401a32 <getval_340>:
  401a32:	b8 89 ce 20 d2       	mov    $0xd220ce89,%eax
  401a37:	c3                   	retq   

0000000000401a38 <setval_347>:
  401a38:	c7 07 48 89 e0 c1    	movl   $0xc1e08948,(%rdi)
  401a3e:	c3                   	retq   

0000000000401a3f <getval_117>:
  401a3f:	b8 a9 d1 38 c0       	mov    $0xc038d1a9,%eax
  401a44:	c3                   	retq   

0000000000401a45 <addval_192>:
  401a45:	8d 87 89 d1 20 c9    	lea    -0x36df2e77(%rdi),%eax
  401a4b:	c3                   	retq   

0000000000401a4c <setval_226>:
  401a4c:	c7 07 09 c2 08 c9    	movl   $0xc908c209,(%rdi)
  401a52:	c3                   	retq   

0000000000401a53 <addval_125>:
  401a53:	8d 87 89 ce 08 c0    	lea    -0x3ff73177(%rdi),%eax
  401a59:	c3                   	retq   

0000000000401a5a <getval_473>:
  401a5a:	b8 a9 c2 20 d2       	mov    $0xd220c2a9,%eax
  401a5f:	c3                   	retq   

0000000000401a60 <getval_185>:
  401a60:	b8 89 ce 18 d2       	mov    $0xd218ce89,%eax
  401a65:	c3                   	retq   

0000000000401a66 <addval_155>:
  401a66:	8d 87 89 d1 78 db    	lea    -0x24872e77(%rdi),%eax
  401a6c:	c3                   	retq   

0000000000401a6d <getval_182>:
  401a6d:	b8 89 ce c4 db       	mov    $0xdbc4ce89,%eax
  401a72:	c3                   	retq   

0000000000401a73 <addval_108>:
  401a73:	8d 87 89 ce 60 c0    	lea    -0x3f9f3177(%rdi),%eax
  401a79:	c3                   	retq   

0000000000401a7a <addval_319>:
  401a7a:	8d 87 89 d1 60 c0    	lea    -0x3f9f2e77(%rdi),%eax
  401a80:	c3                   	retq   

0000000000401a81 <setval_485>:
  401a81:	c7 07 89 c2 18 db    	movl   $0xdb18c289,(%rdi)
  401a87:	c3                   	retq   

0000000000401a88 <end_farm>:
  401a88:	b8 01 00 00 00       	mov    $0x1,%eax
  401a8d:	c3                   	retq   

0000000000401a8e <check_fail>:
  401a8e:	48 83 ec 08          	sub    $0x8,%rsp
  401a92:	0f be 35 8f 46 20 00 	movsbl 0x20468f(%rip),%esi        # 606128 <target_prefix>
  401a99:	b9 20 55 60 00       	mov    $0x605520,%ecx
  401a9e:	8b 15 54 3a 20 00    	mov    0x203a54(%rip),%edx        # 6054f8 <check_level>
  401aa4:	bf f3 32 40 00       	mov    $0x4032f3,%edi
  401aa9:	b8 00 00 00 00       	mov    $0x0,%eax
  401aae:	e8 cd f1 ff ff       	callq  400c80 <printf@plt>
  401ab3:	bf 01 00 00 00       	mov    $0x1,%edi
  401ab8:	e8 33 f3 ff ff       	callq  400df0 <exit@plt>

0000000000401abd <Gets>:
  401abd:	55                   	push   %rbp
  401abe:	53                   	push   %rbx
  401abf:	48 83 ec 08          	sub    $0x8,%rsp
  401ac3:	48 89 fd             	mov    %rdi,%rbp
  401ac6:	c7 05 54 46 20 00 00 	movl   $0x0,0x204654(%rip)        # 606124 <gets_cnt>
  401acd:	00 00 00 
  401ad0:	48 89 fb             	mov    %rdi,%rbx
  401ad3:	eb 5f                	jmp    401b34 <Gets+0x77>
  401ad5:	48 83 c3 01          	add    $0x1,%rbx
  401ad9:	88 43 ff             	mov    %al,-0x1(%rbx)
  401adc:	8b 0d 42 46 20 00    	mov    0x204642(%rip),%ecx        # 606124 <gets_cnt>
  401ae2:	81 f9 ff 03 00 00    	cmp    $0x3ff,%ecx
  401ae8:	7f 4a                	jg     401b34 <Gets+0x77>
  401aea:	0f b6 d0             	movzbl %al,%edx
  401aed:	8d 34 49             	lea    (%rcx,%rcx,2),%esi
  401af0:	48 63 c6             	movslq %esi,%rax
  401af3:	89 d7                	mov    %edx,%edi
  401af5:	c1 ef 04             	shr    $0x4,%edi
  401af8:	48 63 ff             	movslq %edi,%rdi
  401afb:	0f b6 bf f0 35 40 00 	movzbl 0x4035f0(%rdi),%edi
  401b02:	40 88 b8 20 55 60 00 	mov    %dil,0x605520(%rax)
  401b09:	8d 46 01             	lea    0x1(%rsi),%eax
  401b0c:	48 98                	cltq   
  401b0e:	83 e2 0f             	and    $0xf,%edx
  401b11:	0f b6 92 f0 35 40 00 	movzbl 0x4035f0(%rdx),%edx
  401b18:	88 90 20 55 60 00    	mov    %dl,0x605520(%rax)
  401b1e:	83 c6 02             	add    $0x2,%esi
  401b21:	48 63 f6             	movslq %esi,%rsi
  401b24:	c6 86 20 55 60 00 20 	movb   $0x20,0x605520(%rsi)
  401b2b:	83 c1 01             	add    $0x1,%ecx
  401b2e:	89 0d f0 45 20 00    	mov    %ecx,0x2045f0(%rip)        # 606124 <gets_cnt>
  401b34:	48 8b 3d b5 39 20 00 	mov    0x2039b5(%rip),%rdi        # 6054f0 <infile>
  401b3b:	e8 20 f2 ff ff       	callq  400d60 <_IO_getc@plt>
  401b40:	83 f8 ff             	cmp    $0xffffffff,%eax
  401b43:	74 05                	je     401b4a <Gets+0x8d>
  401b45:	83 f8 0a             	cmp    $0xa,%eax
  401b48:	75 8b                	jne    401ad5 <Gets+0x18>
  401b4a:	c6 03 00             	movb   $0x0,(%rbx)
  401b4d:	8b 05 d1 45 20 00    	mov    0x2045d1(%rip),%eax        # 606124 <gets_cnt>
  401b53:	8d 04 40             	lea    (%rax,%rax,2),%eax
  401b56:	48 98                	cltq   
  401b58:	c6 80 20 55 60 00 00 	movb   $0x0,0x605520(%rax)
  401b5f:	48 89 e8             	mov    %rbp,%rax
  401b62:	48 83 c4 08          	add    $0x8,%rsp
  401b66:	5b                   	pop    %rbx
  401b67:	5d                   	pop    %rbp
  401b68:	c3                   	retq   

0000000000401b69 <notify_server>:
  401b69:	83 3d 98 39 20 00 00 	cmpl   $0x0,0x203998(%rip)        # 605508 <is_checker>
  401b70:	0f 85 cc 01 00 00    	jne    401d42 <notify_server+0x1d9>
  401b76:	48 81 ec 18 40 00 00 	sub    $0x4018,%rsp
  401b7d:	8b 05 a1 45 20 00    	mov    0x2045a1(%rip),%eax        # 606124 <gets_cnt>
  401b83:	83 c0 64             	add    $0x64,%eax
  401b86:	3d 00 20 00 00       	cmp    $0x2000,%eax
  401b8b:	7e 19                	jle    401ba6 <notify_server+0x3d>
  401b8d:	bf 28 34 40 00       	mov    $0x403428,%edi
  401b92:	b8 00 00 00 00       	mov    $0x0,%eax
  401b97:	e8 e4 f0 ff ff       	callq  400c80 <printf@plt>
  401b9c:	bf 01 00 00 00       	mov    $0x1,%edi
  401ba1:	e8 4a f2 ff ff       	callq  400df0 <exit@plt>
  401ba6:	44 0f be 0d 7a 45 20 	movsbl 0x20457a(%rip),%r9d        # 606128 <target_prefix>
  401bad:	00 
  401bae:	83 3d f3 38 20 00 00 	cmpl   $0x0,0x2038f3(%rip)        # 6054a8 <notify>
  401bb5:	b8 ff ff ff ff       	mov    $0xffffffff,%eax
  401bba:	0f 45 05 3f 39 20 00 	cmovne 0x20393f(%rip),%eax        # 605500 <authkey>
  401bc1:	41 89 c0             	mov    %eax,%r8d
  401bc4:	85 ff                	test   %edi,%edi
  401bc6:	0f 85 f0 00 00 00    	jne    401cbc <notify_server+0x153>
  401bcc:	e9 a9 00 00 00       	jmpq   401c7a <notify_server+0x111>
  401bd1:	48 8d 74 24 10       	lea    0x10(%rsp),%rsi
  401bd6:	bf 13 33 40 00       	mov    $0x403313,%edi
  401bdb:	b8 00 00 00 00       	mov    $0x0,%eax
  401be0:	e8 9b f0 ff ff       	callq  400c80 <printf@plt>
  401be5:	bf 01 00 00 00       	mov    $0x1,%edi
  401bea:	e8 01 f2 ff ff       	callq  400df0 <exit@plt>
  401bef:	bf 58 34 40 00       	mov    $0x403458,%edi
  401bf4:	e8 57 f0 ff ff       	callq  400c50 <puts@plt>
  401bf9:	bf 1f 33 40 00       	mov    $0x40331f,%edi
  401bfe:	e8 4d f0 ff ff       	callq  400c50 <puts@plt>
  401c03:	e9 33 01 00 00       	jmpq   401d3b <notify_server+0x1d2>
  401c08:	be 09 33 40 00       	mov    $0x403309,%esi
  401c0d:	bf 90 34 40 00       	mov    $0x403490,%edi
  401c12:	b8 00 00 00 00       	mov    $0x0,%eax
  401c17:	e8 64 f0 ff ff       	callq  400c80 <printf@plt>
  401c1c:	48 8b 35 3d 35 20 00 	mov    0x20353d(%rip),%rsi        # 605160 <user_id>
  401c23:	bf 29 33 40 00       	mov    $0x403329,%edi
  401c28:	b8 00 00 00 00       	mov    $0x0,%eax
  401c2d:	e8 4e f0 ff ff       	callq  400c80 <printf@plt>
  401c32:	48 8b 35 3f 35 20 00 	mov    0x20353f(%rip),%rsi        # 605178 <course>
  401c39:	bf 36 33 40 00       	mov    $0x403336,%edi
  401c3e:	b8 00 00 00 00       	mov    $0x0,%eax
  401c43:	e8 38 f0 ff ff       	callq  400c80 <printf@plt>
  401c48:	48 8b 35 21 35 20 00 	mov    0x203521(%rip),%rsi        # 605170 <lab>
  401c4f:	bf 42 33 40 00       	mov    $0x403342,%edi
  401c54:	b8 00 00 00 00       	mov    $0x0,%eax
  401c59:	e8 22 f0 ff ff       	callq  400c80 <printf@plt>
  401c5e:	48 8d b4 24 10 20 00 	lea    0x2010(%rsp),%rsi
  401c65:	00 
  401c66:	bf 4b 33 40 00       	mov    $0x40334b,%edi
  401c6b:	b8 00 00 00 00       	mov    $0x0,%eax
  401c70:	e8 0b f0 ff ff       	callq  400c80 <printf@plt>
  401c75:	e9 c1 00 00 00       	jmpq   401d3b <notify_server+0x1d2>
  401c7a:	48 c7 44 24 08 20 55 	movq   $0x605520,0x8(%rsp)
  401c81:	60 00 
  401c83:	89 34 24             	mov    %esi,(%rsp)
  401c86:	b9 0e 33 40 00       	mov    $0x40330e,%ecx
  401c8b:	8b 15 d7 34 20 00    	mov    0x2034d7(%rip),%edx        # 605168 <target_id>
  401c91:	be 57 33 40 00       	mov    $0x403357,%esi
  401c96:	48 8d bc 24 10 20 00 	lea    0x2010(%rsp),%rdi
  401c9d:	00 
  401c9e:	b8 00 00 00 00       	mov    $0x0,%eax
  401ca3:	e8 38 f1 ff ff       	callq  400de0 <sprintf@plt>
  401ca8:	be 0e 33 40 00       	mov    $0x40330e,%esi
  401cad:	83 3d f4 37 20 00 00 	cmpl   $0x0,0x2037f4(%rip)        # 6054a8 <notify>
  401cb4:	0f 84 53 ff ff ff    	je     401c0d <notify_server+0xa4>
  401cba:	eb 75                	jmp    401d31 <notify_server+0x1c8>
  401cbc:	48 c7 44 24 08 20 55 	movq   $0x605520,0x8(%rsp)
  401cc3:	60 00 
  401cc5:	89 34 24             	mov    %esi,(%rsp)
  401cc8:	b9 09 33 40 00       	mov    $0x403309,%ecx
  401ccd:	8b 15 95 34 20 00    	mov    0x203495(%rip),%edx        # 605168 <target_id>
  401cd3:	be 57 33 40 00       	mov    $0x403357,%esi
  401cd8:	48 8d bc 24 10 20 00 	lea    0x2010(%rsp),%rdi
  401cdf:	00 
  401ce0:	b8 00 00 00 00       	mov    $0x0,%eax
  401ce5:	e8 f6 f0 ff ff       	callq  400de0 <sprintf@plt>
  401cea:	83 3d b7 37 20 00 00 	cmpl   $0x0,0x2037b7(%rip)        # 6054a8 <notify>
  401cf1:	0f 84 11 ff ff ff    	je     401c08 <notify_server+0x9f>
  401cf7:	4c 8d 4c 24 10       	lea    0x10(%rsp),%r9
  401cfc:	41 b8 00 00 00 00    	mov    $0x0,%r8d
  401d02:	48 8d 8c 24 10 20 00 	lea    0x2010(%rsp),%rcx
  401d09:	00 
  401d0a:	48 8b 15 5f 34 20 00 	mov    0x20345f(%rip),%rdx        # 605170 <lab>
  401d11:	48 8b 35 60 34 20 00 	mov    0x203460(%rip),%rsi        # 605178 <course>
  401d18:	48 8b 3d 41 34 20 00 	mov    0x203441(%rip),%rdi        # 605160 <user_id>
  401d1f:	e8 0f 0f 00 00       	callq  402c33 <driver_post>
  401d24:	85 c0                	test   %eax,%eax
  401d26:	0f 89 c3 fe ff ff    	jns    401bef <notify_server+0x86>
  401d2c:	e9 a0 fe ff ff       	jmpq   401bd1 <notify_server+0x68>
  401d31:	bf 73 33 40 00       	mov    $0x403373,%edi
  401d36:	e8 15 ef ff ff       	callq  400c50 <puts@plt>
  401d3b:	48 81 c4 18 40 00 00 	add    $0x4018,%rsp
  401d42:	f3 c3                	repz retq 

0000000000401d44 <validate>:
  401d44:	55                   	push   %rbp
  401d45:	53                   	push   %rbx
  401d46:	48 83 ec 08          	sub    $0x8,%rsp
  401d4a:	89 fb                	mov    %edi,%ebx
  401d4c:	83 3d b5 37 20 00 00 	cmpl   $0x0,0x2037b5(%rip)        # 605508 <is_checker>
  401d53:	74 5e                	je     401db3 <validate+0x6f>
  401d55:	8b 15 a1 37 20 00    	mov    0x2037a1(%rip),%edx        # 6054fc <vlevel>
  401d5b:	39 fa                	cmp    %edi,%edx
  401d5d:	74 14                	je     401d73 <validate+0x2f>
  401d5f:	bf 7a 33 40 00       	mov    $0x40337a,%edi
  401d64:	e8 e7 ee ff ff       	callq  400c50 <puts@plt>
  401d69:	b8 00 00 00 00       	mov    $0x0,%eax
  401d6e:	e8 1b fd ff ff       	callq  401a8e <check_fail>
  401d73:	8b 35 7f 37 20 00    	mov    0x20377f(%rip),%esi        # 6054f8 <check_level>
  401d79:	39 f2                	cmp    %esi,%edx
  401d7b:	74 19                	je     401d96 <validate+0x52>
  401d7d:	bf b8 34 40 00       	mov    $0x4034b8,%edi
  401d82:	b8 00 00 00 00       	mov    $0x0,%eax
  401d87:	e8 f4 ee ff ff       	callq  400c80 <printf@plt>
  401d8c:	b8 00 00 00 00       	mov    $0x0,%eax
  401d91:	e8 f8 fc ff ff       	callq  401a8e <check_fail>
  401d96:	0f be 35 8b 43 20 00 	movsbl 0x20438b(%rip),%esi        # 606128 <target_prefix>
  401d9d:	b9 20 55 60 00       	mov    $0x605520,%ecx
  401da2:	bf 98 33 40 00       	mov    $0x403398,%edi
  401da7:	b8 00 00 00 00       	mov    $0x0,%eax
  401dac:	e8 cf ee ff ff       	callq  400c80 <printf@plt>
  401db1:	eb 46                	jmp    401df9 <validate+0xb5>
  401db3:	8b 2d 43 37 20 00    	mov    0x203743(%rip),%ebp        # 6054fc <vlevel>
  401db9:	39 fd                	cmp    %edi,%ebp
  401dbb:	74 18                	je     401dd5 <validate+0x91>
  401dbd:	bf 7a 33 40 00       	mov    $0x40337a,%edi
  401dc2:	e8 89 ee ff ff       	callq  400c50 <puts@plt>
  401dc7:	89 de                	mov    %ebx,%esi
  401dc9:	bf 00 00 00 00       	mov    $0x0,%edi
  401dce:	e8 96 fd ff ff       	callq  401b69 <notify_server>
  401dd3:	eb 24                	jmp    401df9 <validate+0xb5>
  401dd5:	0f be 15 4c 43 20 00 	movsbl 0x20434c(%rip),%edx        # 606128 <target_prefix>
  401ddc:	89 ee                	mov    %ebp,%esi
  401dde:	bf e0 34 40 00       	mov    $0x4034e0,%edi
  401de3:	b8 00 00 00 00       	mov    $0x0,%eax
  401de8:	e8 93 ee ff ff       	callq  400c80 <printf@plt>
  401ded:	89 ee                	mov    %ebp,%esi
  401def:	bf 01 00 00 00       	mov    $0x1,%edi
  401df4:	e8 70 fd ff ff       	callq  401b69 <notify_server>
  401df9:	48 83 c4 08          	add    $0x8,%rsp
  401dfd:	5b                   	pop    %rbx
  401dfe:	5d                   	pop    %rbp
  401dff:	c3                   	retq   

0000000000401e00 <fail>:
  401e00:	48 83 ec 08          	sub    $0x8,%rsp
  401e04:	83 3d fd 36 20 00 00 	cmpl   $0x0,0x2036fd(%rip)        # 605508 <is_checker>
  401e0b:	74 0a                	je     401e17 <fail+0x17>
  401e0d:	b8 00 00 00 00       	mov    $0x0,%eax
  401e12:	e8 77 fc ff ff       	callq  401a8e <check_fail>
  401e17:	89 fe                	mov    %edi,%esi
  401e19:	bf 00 00 00 00       	mov    $0x0,%edi
  401e1e:	e8 46 fd ff ff       	callq  401b69 <notify_server>
  401e23:	48 83 c4 08          	add    $0x8,%rsp
  401e27:	c3                   	retq   

0000000000401e28 <bushandler>:
  401e28:	48 83 ec 08          	sub    $0x8,%rsp
  401e2c:	83 3d d5 36 20 00 00 	cmpl   $0x0,0x2036d5(%rip)        # 605508 <is_checker>
  401e33:	74 14                	je     401e49 <bushandler+0x21>
  401e35:	bf ad 33 40 00       	mov    $0x4033ad,%edi
  401e3a:	e8 11 ee ff ff       	callq  400c50 <puts@plt>
  401e3f:	b8 00 00 00 00       	mov    $0x0,%eax
  401e44:	e8 45 fc ff ff       	callq  401a8e <check_fail>
  401e49:	bf 18 35 40 00       	mov    $0x403518,%edi
  401e4e:	e8 fd ed ff ff       	callq  400c50 <puts@plt>
  401e53:	bf b7 33 40 00       	mov    $0x4033b7,%edi
  401e58:	e8 f3 ed ff ff       	callq  400c50 <puts@plt>
  401e5d:	be 00 00 00 00       	mov    $0x0,%esi
  401e62:	bf 00 00 00 00       	mov    $0x0,%edi
  401e67:	e8 fd fc ff ff       	callq  401b69 <notify_server>
  401e6c:	bf 01 00 00 00       	mov    $0x1,%edi
  401e71:	e8 7a ef ff ff       	callq  400df0 <exit@plt>

0000000000401e76 <seghandler>:
  401e76:	48 83 ec 08          	sub    $0x8,%rsp
  401e7a:	83 3d 87 36 20 00 00 	cmpl   $0x0,0x203687(%rip)        # 605508 <is_checker>
  401e81:	74 14                	je     401e97 <seghandler+0x21>
  401e83:	bf cd 33 40 00       	mov    $0x4033cd,%edi
  401e88:	e8 c3 ed ff ff       	callq  400c50 <puts@plt>
  401e8d:	b8 00 00 00 00       	mov    $0x0,%eax
  401e92:	e8 f7 fb ff ff       	callq  401a8e <check_fail>
  401e97:	bf 38 35 40 00       	mov    $0x403538,%edi
  401e9c:	e8 af ed ff ff       	callq  400c50 <puts@plt>
  401ea1:	bf b7 33 40 00       	mov    $0x4033b7,%edi
  401ea6:	e8 a5 ed ff ff       	callq  400c50 <puts@plt>
  401eab:	be 00 00 00 00       	mov    $0x0,%esi
  401eb0:	bf 00 00 00 00       	mov    $0x0,%edi
  401eb5:	e8 af fc ff ff       	callq  401b69 <notify_server>
  401eba:	bf 01 00 00 00       	mov    $0x1,%edi
  401ebf:	e8 2c ef ff ff       	callq  400df0 <exit@plt>

0000000000401ec4 <illegalhandler>:
  401ec4:	48 83 ec 08          	sub    $0x8,%rsp
  401ec8:	83 3d 39 36 20 00 00 	cmpl   $0x0,0x203639(%rip)        # 605508 <is_checker>
  401ecf:	74 14                	je     401ee5 <illegalhandler+0x21>
  401ed1:	bf e0 33 40 00       	mov    $0x4033e0,%edi
  401ed6:	e8 75 ed ff ff       	callq  400c50 <puts@plt>
  401edb:	b8 00 00 00 00       	mov    $0x0,%eax
  401ee0:	e8 a9 fb ff ff       	callq  401a8e <check_fail>
  401ee5:	bf 60 35 40 00       	mov    $0x403560,%edi
  401eea:	e8 61 ed ff ff       	callq  400c50 <puts@plt>
  401eef:	bf b7 33 40 00       	mov    $0x4033b7,%edi
  401ef4:	e8 57 ed ff ff       	callq  400c50 <puts@plt>
  401ef9:	be 00 00 00 00       	mov    $0x0,%esi
  401efe:	bf 00 00 00 00       	mov    $0x0,%edi
  401f03:	e8 61 fc ff ff       	callq  401b69 <notify_server>
  401f08:	bf 01 00 00 00       	mov    $0x1,%edi
  401f0d:	e8 de ee ff ff       	callq  400df0 <exit@plt>

0000000000401f12 <sigalrmhandler>:
  401f12:	48 83 ec 08          	sub    $0x8,%rsp
  401f16:	83 3d eb 35 20 00 00 	cmpl   $0x0,0x2035eb(%rip)        # 605508 <is_checker>
  401f1d:	74 14                	je     401f33 <sigalrmhandler+0x21>
  401f1f:	bf f4 33 40 00       	mov    $0x4033f4,%edi
  401f24:	e8 27 ed ff ff       	callq  400c50 <puts@plt>
  401f29:	b8 00 00 00 00       	mov    $0x0,%eax
  401f2e:	e8 5b fb ff ff       	callq  401a8e <check_fail>
  401f33:	be 05 00 00 00       	mov    $0x5,%esi
  401f38:	bf 90 35 40 00       	mov    $0x403590,%edi
  401f3d:	b8 00 00 00 00       	mov    $0x0,%eax
  401f42:	e8 39 ed ff ff       	callq  400c80 <printf@plt>
  401f47:	be 00 00 00 00       	mov    $0x0,%esi
  401f4c:	bf 00 00 00 00       	mov    $0x0,%edi
  401f51:	e8 13 fc ff ff       	callq  401b69 <notify_server>
  401f56:	bf 01 00 00 00       	mov    $0x1,%edi
  401f5b:	e8 90 ee ff ff       	callq  400df0 <exit@plt>

0000000000401f60 <launch>:
  401f60:	55                   	push   %rbp
  401f61:	48 89 e5             	mov    %rsp,%rbp
  401f64:	48 89 fa             	mov    %rdi,%rdx
  401f67:	48 8d 47 1e          	lea    0x1e(%rdi),%rax
  401f6b:	48 83 e0 f0          	and    $0xfffffffffffffff0,%rax
  401f6f:	48 29 c4             	sub    %rax,%rsp
  401f72:	48 8d 7c 24 0f       	lea    0xf(%rsp),%rdi
  401f77:	48 83 e7 f0          	and    $0xfffffffffffffff0,%rdi
  401f7b:	be f4 00 00 00       	mov    $0xf4,%esi
  401f80:	e8 0b ed ff ff       	callq  400c90 <memset@plt>
  401f85:	48 8b 05 34 35 20 00 	mov    0x203534(%rip),%rax        # 6054c0 <stdin@@GLIBC_2.2.5>
  401f8c:	48 39 05 5d 35 20 00 	cmp    %rax,0x20355d(%rip)        # 6054f0 <infile>
  401f93:	75 0f                	jne    401fa4 <launch+0x44>
  401f95:	bf fc 33 40 00       	mov    $0x4033fc,%edi
  401f9a:	b8 00 00 00 00       	mov    $0x0,%eax
  401f9f:	e8 dc ec ff ff       	callq  400c80 <printf@plt>
  401fa4:	c7 05 4e 35 20 00 00 	movl   $0x0,0x20354e(%rip)        # 6054fc <vlevel>
  401fab:	00 00 00 
  401fae:	b8 00 00 00 00       	mov    $0x0,%eax
  401fb3:	e8 8d f9 ff ff       	callq  401945 <test>
  401fb8:	83 3d 49 35 20 00 00 	cmpl   $0x0,0x203549(%rip)        # 605508 <is_checker>
  401fbf:	74 14                	je     401fd5 <launch+0x75>
  401fc1:	bf 09 34 40 00       	mov    $0x403409,%edi
  401fc6:	e8 85 ec ff ff       	callq  400c50 <puts@plt>
  401fcb:	b8 00 00 00 00       	mov    $0x0,%eax
  401fd0:	e8 b9 fa ff ff       	callq  401a8e <check_fail>
  401fd5:	bf 14 34 40 00       	mov    $0x403414,%edi
  401fda:	e8 71 ec ff ff       	callq  400c50 <puts@plt>
  401fdf:	c9                   	leaveq 
  401fe0:	c3                   	retq   

0000000000401fe1 <stable_launch>:
  401fe1:	48 83 ec 08          	sub    $0x8,%rsp
  401fe5:	48 89 3d fc 34 20 00 	mov    %rdi,0x2034fc(%rip)        # 6054e8 <global_offset>
  401fec:	41 b9 00 00 00 00    	mov    $0x0,%r9d
  401ff2:	41 b8 00 00 00 00    	mov    $0x0,%r8d
  401ff8:	b9 32 01 00 00       	mov    $0x132,%ecx
  401ffd:	ba 07 00 00 00       	mov    $0x7,%edx
  402002:	be 00 00 10 00       	mov    $0x100000,%esi
  402007:	bf 00 60 58 55       	mov    $0x55586000,%edi
  40200c:	e8 5f ec ff ff       	callq  400c70 <mmap@plt>
  402011:	48 3d 00 60 58 55    	cmp    $0x55586000,%rax
  402017:	74 32                	je     40204b <stable_launch+0x6a>
  402019:	be 00 00 10 00       	mov    $0x100000,%esi
  40201e:	48 89 c7             	mov    %rax,%rdi
  402021:	e8 5a ed ff ff       	callq  400d80 <munmap@plt>
  402026:	ba 00 60 58 55       	mov    $0x55586000,%edx
  40202b:	be c8 35 40 00       	mov    $0x4035c8,%esi
  402030:	48 8b 3d 99 34 20 00 	mov    0x203499(%rip),%rdi        # 6054d0 <stderr@@GLIBC_2.2.5>
  402037:	b8 00 00 00 00       	mov    $0x0,%eax
  40203c:	e8 bf ec ff ff       	callq  400d00 <fprintf@plt>
  402041:	bf 01 00 00 00       	mov    $0x1,%edi
  402046:	e8 a5 ed ff ff       	callq  400df0 <exit@plt>
  40204b:	48 c7 05 da 40 20 00 	movq   $0x55685ff8,0x2040da(%rip)        # 606130 <stack_top>
  402052:	f8 5f 68 55 
  402056:	ba f8 5f 68 55       	mov    $0x55685ff8,%edx
  40205b:	48 89 e0             	mov    %rsp,%rax
  40205e:	48 89 d4             	mov    %rdx,%rsp
  402061:	48 89 c2             	mov    %rax,%rdx
  402064:	48 89 15 75 34 20 00 	mov    %rdx,0x203475(%rip)        # 6054e0 <global_save_stack>
  40206b:	48 8b 3d 76 34 20 00 	mov    0x203476(%rip),%rdi        # 6054e8 <global_offset>
  402072:	e8 e9 fe ff ff       	callq  401f60 <launch>
  402077:	48 8b 05 62 34 20 00 	mov    0x203462(%rip),%rax        # 6054e0 <global_save_stack>
  40207e:	48 89 c4             	mov    %rax,%rsp
  402081:	be 00 00 10 00       	mov    $0x100000,%esi
  402086:	bf 00 60 58 55       	mov    $0x55586000,%edi
  40208b:	e8 f0 ec ff ff       	callq  400d80 <munmap@plt>
  402090:	48 83 c4 08          	add    $0x8,%rsp
  402094:	c3                   	retq   
  402095:	66 2e 0f 1f 84 00 00 	nopw   %cs:0x0(%rax,%rax,1)
  40209c:	00 00 00 
  40209f:	90                   	nop

00000000004020a0 <sigalrm_handler>:
  4020a0:	48 83 ec 08          	sub    $0x8,%rsp
  4020a4:	ba 00 00 00 00       	mov    $0x0,%edx
  4020a9:	be 00 36 40 00       	mov    $0x403600,%esi
  4020ae:	48 8b 3d 1b 34 20 00 	mov    0x20341b(%rip),%rdi        # 6054d0 <stderr@@GLIBC_2.2.5>
  4020b5:	b8 00 00 00 00       	mov    $0x0,%eax
  4020ba:	e8 41 ec ff ff       	callq  400d00 <fprintf@plt>
  4020bf:	bf 01 00 00 00       	mov    $0x1,%edi
  4020c4:	e8 27 ed ff ff       	callq  400df0 <exit@plt>

00000000004020c9 <rio_readlineb>:
  4020c9:	41 57                	push   %r15
  4020cb:	41 56                	push   %r14
  4020cd:	41 55                	push   %r13
  4020cf:	41 54                	push   %r12
  4020d1:	55                   	push   %rbp
  4020d2:	53                   	push   %rbx
  4020d3:	48 83 ec 38          	sub    $0x38,%rsp
  4020d7:	49 89 f6             	mov    %rsi,%r14
  4020da:	48 89 54 24 18       	mov    %rdx,0x18(%rsp)
  4020df:	48 83 fa 01          	cmp    $0x1,%rdx
  4020e3:	0f 86 bd 00 00 00    	jbe    4021a6 <rio_readlineb+0xdd>
  4020e9:	48 89 fb             	mov    %rdi,%rbx
  4020ec:	41 bd 01 00 00 00    	mov    $0x1,%r13d
  4020f2:	4c 8d 67 10          	lea    0x10(%rdi),%r12
  4020f6:	eb 2e                	jmp    402126 <rio_readlineb+0x5d>
  4020f8:	ba 00 20 00 00       	mov    $0x2000,%edx
  4020fd:	4c 89 e6             	mov    %r12,%rsi
  402100:	8b 3b                	mov    (%rbx),%edi
  402102:	e8 b9 eb ff ff       	callq  400cc0 <read@plt>
  402107:	89 43 04             	mov    %eax,0x4(%rbx)
  40210a:	85 c0                	test   %eax,%eax
  40210c:	79 0f                	jns    40211d <rio_readlineb+0x54>
  40210e:	e8 fd ea ff ff       	callq  400c10 <__errno_location@plt>
  402113:	83 38 04             	cmpl   $0x4,(%rax)
  402116:	74 0e                	je     402126 <rio_readlineb+0x5d>
  402118:	e9 98 00 00 00       	jmpq   4021b5 <rio_readlineb+0xec>
  40211d:	85 c0                	test   %eax,%eax
  40211f:	90                   	nop
  402120:	74 6c                	je     40218e <rio_readlineb+0xc5>
  402122:	4c 89 63 08          	mov    %r12,0x8(%rbx)
  402126:	8b 6b 04             	mov    0x4(%rbx),%ebp
  402129:	85 ed                	test   %ebp,%ebp
  40212b:	7e cb                	jle    4020f8 <rio_readlineb+0x2f>
  40212d:	85 ed                	test   %ebp,%ebp
  40212f:	41 0f 95 c7          	setne  %r15b
  402133:	41 0f b6 c7          	movzbl %r15b,%eax
  402137:	89 44 24 0c          	mov    %eax,0xc(%rsp)
  40213b:	45 0f b6 ff          	movzbl %r15b,%r15d
  40213f:	48 8b 4b 08          	mov    0x8(%rbx),%rcx
  402143:	4c 89 fa             	mov    %r15,%rdx
  402146:	48 89 4c 24 10       	mov    %rcx,0x10(%rsp)
  40214b:	48 89 ce             	mov    %rcx,%rsi
  40214e:	48 8d 7c 24 2f       	lea    0x2f(%rsp),%rdi
  402153:	e8 d8 eb ff ff       	callq  400d30 <memcpy@plt>
  402158:	4c 03 7c 24 10       	add    0x10(%rsp),%r15
  40215d:	4c 89 7b 08          	mov    %r15,0x8(%rbx)
  402161:	8b 44 24 0c          	mov    0xc(%rsp),%eax
  402165:	29 c5                	sub    %eax,%ebp
  402167:	89 6b 04             	mov    %ebp,0x4(%rbx)
  40216a:	83 f8 01             	cmp    $0x1,%eax
  40216d:	75 13                	jne    402182 <rio_readlineb+0xb9>
  40216f:	49 83 c6 01          	add    $0x1,%r14
  402173:	0f b6 44 24 2f       	movzbl 0x2f(%rsp),%eax
  402178:	41 88 46 ff          	mov    %al,-0x1(%r14)
  40217c:	3c 0a                	cmp    $0xa,%al
  40217e:	75 19                	jne    402199 <rio_readlineb+0xd0>
  402180:	eb 2a                	jmp    4021ac <rio_readlineb+0xe3>
  402182:	83 7c 24 0c 00       	cmpl   $0x0,0xc(%rsp)
  402187:	75 35                	jne    4021be <rio_readlineb+0xf5>
  402189:	4c 89 e8             	mov    %r13,%rax
  40218c:	eb 03                	jmp    402191 <rio_readlineb+0xc8>
  40218e:	4c 89 e8             	mov    %r13,%rax
  402191:	48 83 f8 01          	cmp    $0x1,%rax
  402195:	75 15                	jne    4021ac <rio_readlineb+0xe3>
  402197:	eb 2e                	jmp    4021c7 <rio_readlineb+0xfe>
  402199:	49 83 c5 01          	add    $0x1,%r13
  40219d:	4c 3b 6c 24 18       	cmp    0x18(%rsp),%r13
  4021a2:	74 08                	je     4021ac <rio_readlineb+0xe3>
  4021a4:	eb 80                	jmp    402126 <rio_readlineb+0x5d>
  4021a6:	41 bd 01 00 00 00    	mov    $0x1,%r13d
  4021ac:	41 c6 06 00          	movb   $0x0,(%r14)
  4021b0:	4c 89 e8             	mov    %r13,%rax
  4021b3:	eb 17                	jmp    4021cc <rio_readlineb+0x103>
  4021b5:	48 c7 c0 ff ff ff ff 	mov    $0xffffffffffffffff,%rax
  4021bc:	eb 0e                	jmp    4021cc <rio_readlineb+0x103>
  4021be:	48 c7 c0 ff ff ff ff 	mov    $0xffffffffffffffff,%rax
  4021c5:	eb 05                	jmp    4021cc <rio_readlineb+0x103>
  4021c7:	b8 00 00 00 00       	mov    $0x0,%eax
  4021cc:	48 83 c4 38          	add    $0x38,%rsp
  4021d0:	5b                   	pop    %rbx
  4021d1:	5d                   	pop    %rbp
  4021d2:	41 5c                	pop    %r12
  4021d4:	41 5d                	pop    %r13
  4021d6:	41 5e                	pop    %r14
  4021d8:	41 5f                	pop    %r15
  4021da:	c3                   	retq   

00000000004021db <submitr>:
  4021db:	41 57                	push   %r15
  4021dd:	41 56                	push   %r14
  4021df:	41 55                	push   %r13
  4021e1:	41 54                	push   %r12
  4021e3:	55                   	push   %rbp
  4021e4:	53                   	push   %rbx
  4021e5:	48 81 ec 58 a0 00 00 	sub    $0xa058,%rsp
  4021ec:	49 89 ff             	mov    %rdi,%r15
  4021ef:	89 f5                	mov    %esi,%ebp
  4021f1:	48 89 14 24          	mov    %rdx,(%rsp)
  4021f5:	48 89 4c 24 08       	mov    %rcx,0x8(%rsp)
  4021fa:	4d 89 c5             	mov    %r8,%r13
  4021fd:	4c 89 cb             	mov    %r9,%rbx
  402200:	4c 8b b4 24 90 a0 00 	mov    0xa090(%rsp),%r14
  402207:	00 
  402208:	c7 84 24 2c 20 00 00 	movl   $0x0,0x202c(%rsp)
  40220f:	00 00 00 00 
  402213:	ba 00 00 00 00       	mov    $0x0,%edx
  402218:	be 01 00 00 00       	mov    $0x1,%esi
  40221d:	bf 02 00 00 00       	mov    $0x2,%edi
  402222:	e8 e9 eb ff ff       	callq  400e10 <socket@plt>
  402227:	41 89 c4             	mov    %eax,%r12d
  40222a:	85 c0                	test   %eax,%eax
  40222c:	79 50                	jns    40227e <submitr+0xa3>
  40222e:	48 b8 45 72 72 6f 72 	movabs $0x43203a726f727245,%rax
  402235:	3a 20 43 
  402238:	49 89 06             	mov    %rax,(%r14)
  40223b:	48 b8 6c 69 65 6e 74 	movabs $0x6e7520746e65696c,%rax
  402242:	20 75 6e 
  402245:	49 89 46 08          	mov    %rax,0x8(%r14)
  402249:	48 b8 61 62 6c 65 20 	movabs $0x206f7420656c6261,%rax
  402250:	74 6f 20 
  402253:	49 89 46 10          	mov    %rax,0x10(%r14)
  402257:	48 b8 63 72 65 61 74 	movabs $0x7320657461657263,%rax
  40225e:	65 20 73 
  402261:	49 89 46 18          	mov    %rax,0x18(%r14)
  402265:	41 c7 46 20 6f 63 6b 	movl   $0x656b636f,0x20(%r14)
  40226c:	65 
  40226d:	66 41 c7 46 24 74 00 	movw   $0x74,0x24(%r14)
  402274:	b8 ff ff ff ff       	mov    $0xffffffff,%eax
  402279:	e9 b3 07 00 00       	jmpq   402a31 <submitr+0x856>
  40227e:	4c 89 ff             	mov    %r15,%rdi
  402281:	e8 6a ea ff ff       	callq  400cf0 <gethostbyname@plt>
  402286:	48 85 c0             	test   %rax,%rax
  402289:	75 6b                	jne    4022f6 <submitr+0x11b>
  40228b:	48 b8 45 72 72 6f 72 	movabs $0x44203a726f727245,%rax
  402292:	3a 20 44 
  402295:	49 89 06             	mov    %rax,(%r14)
  402298:	48 b8 4e 53 20 69 73 	movabs $0x6e7520736920534e,%rax
  40229f:	20 75 6e 
  4022a2:	49 89 46 08          	mov    %rax,0x8(%r14)
  4022a6:	48 b8 61 62 6c 65 20 	movabs $0x206f7420656c6261,%rax
  4022ad:	74 6f 20 
  4022b0:	49 89 46 10          	mov    %rax,0x10(%r14)
  4022b4:	48 b8 72 65 73 6f 6c 	movabs $0x2065766c6f736572,%rax
  4022bb:	76 65 20 
  4022be:	49 89 46 18          	mov    %rax,0x18(%r14)
  4022c2:	48 b8 73 65 72 76 65 	movabs $0x6120726576726573,%rax
  4022c9:	72 20 61 
  4022cc:	49 89 46 20          	mov    %rax,0x20(%r14)
  4022d0:	41 c7 46 28 64 64 72 	movl   $0x65726464,0x28(%r14)
  4022d7:	65 
  4022d8:	66 41 c7 46 2c 73 73 	movw   $0x7373,0x2c(%r14)
  4022df:	41 c6 46 2e 00       	movb   $0x0,0x2e(%r14)
  4022e4:	44 89 e7             	mov    %r12d,%edi
  4022e7:	e8 c4 e9 ff ff       	callq  400cb0 <close@plt>
  4022ec:	b8 ff ff ff ff       	mov    $0xffffffff,%eax
  4022f1:	e9 3b 07 00 00       	jmpq   402a31 <submitr+0x856>
  4022f6:	48 c7 84 24 40 a0 00 	movq   $0x0,0xa040(%rsp)
  4022fd:	00 00 00 00 00 
  402302:	48 c7 84 24 48 a0 00 	movq   $0x0,0xa048(%rsp)
  402309:	00 00 00 00 00 
  40230e:	66 c7 84 24 40 a0 00 	movw   $0x2,0xa040(%rsp)
  402315:	00 02 00 
  402318:	48 63 50 14          	movslq 0x14(%rax),%rdx
  40231c:	48 8d b4 24 44 a0 00 	lea    0xa044(%rsp),%rsi
  402323:	00 
  402324:	48 8b 40 18          	mov    0x18(%rax),%rax
  402328:	48 8b 38             	mov    (%rax),%rdi
  40232b:	e8 60 ea ff ff       	callq  400d90 <bcopy@plt>
  402330:	66 c1 cd 08          	ror    $0x8,%bp
  402334:	66 89 ac 24 42 a0 00 	mov    %bp,0xa042(%rsp)
  40233b:	00 
  40233c:	ba 10 00 00 00       	mov    $0x10,%edx
  402341:	48 8d b4 24 40 a0 00 	lea    0xa040(%rsp),%rsi
  402348:	00 
  402349:	44 89 e7             	mov    %r12d,%edi
  40234c:	e8 af ea ff ff       	callq  400e00 <connect@plt>
  402351:	85 c0                	test   %eax,%eax
  402353:	79 5d                	jns    4023b2 <submitr+0x1d7>
  402355:	48 b8 45 72 72 6f 72 	movabs $0x55203a726f727245,%rax
  40235c:	3a 20 55 
  40235f:	49 89 06             	mov    %rax,(%r14)
  402362:	48 b8 6e 61 62 6c 65 	movabs $0x6f7420656c62616e,%rax
  402369:	20 74 6f 
  40236c:	49 89 46 08          	mov    %rax,0x8(%r14)
  402370:	48 b8 20 63 6f 6e 6e 	movabs $0x7463656e6e6f6320,%rax
  402377:	65 63 74 
  40237a:	49 89 46 10          	mov    %rax,0x10(%r14)
  40237e:	48 b8 20 74 6f 20 74 	movabs $0x20656874206f7420,%rax
  402385:	68 65 20 
  402388:	49 89 46 18          	mov    %rax,0x18(%r14)
  40238c:	41 c7 46 20 73 65 72 	movl   $0x76726573,0x20(%r14)
  402393:	76 
  402394:	66 41 c7 46 24 65 72 	movw   $0x7265,0x24(%r14)
  40239b:	41 c6 46 26 00       	movb   $0x0,0x26(%r14)
  4023a0:	44 89 e7             	mov    %r12d,%edi
  4023a3:	e8 08 e9 ff ff       	callq  400cb0 <close@plt>
  4023a8:	b8 ff ff ff ff       	mov    $0xffffffff,%eax
  4023ad:	e9 7f 06 00 00       	jmpq   402a31 <submitr+0x856>
  4023b2:	48 c7 c2 ff ff ff ff 	mov    $0xffffffffffffffff,%rdx
  4023b9:	48 89 df             	mov    %rbx,%rdi
  4023bc:	b8 00 00 00 00       	mov    $0x0,%eax
  4023c1:	48 89 d1             	mov    %rdx,%rcx
  4023c4:	f2 ae                	repnz scas %es:(%rdi),%al
  4023c6:	48 f7 d1             	not    %rcx
  4023c9:	48 89 ce             	mov    %rcx,%rsi
  4023cc:	48 8b 3c 24          	mov    (%rsp),%rdi
  4023d0:	48 89 d1             	mov    %rdx,%rcx
  4023d3:	f2 ae                	repnz scas %es:(%rdi),%al
  4023d5:	49 89 c8             	mov    %rcx,%r8
  4023d8:	48 8b 7c 24 08       	mov    0x8(%rsp),%rdi
  4023dd:	48 89 d1             	mov    %rdx,%rcx
  4023e0:	f2 ae                	repnz scas %es:(%rdi),%al
  4023e2:	48 f7 d1             	not    %rcx
  4023e5:	49 89 c9             	mov    %rcx,%r9
  4023e8:	4c 89 ef             	mov    %r13,%rdi
  4023eb:	48 89 d1             	mov    %rdx,%rcx
  4023ee:	f2 ae                	repnz scas %es:(%rdi),%al
  4023f0:	4d 29 c1             	sub    %r8,%r9
  4023f3:	49 29 c9             	sub    %rcx,%r9
  4023f6:	48 8d 44 76 fd       	lea    -0x3(%rsi,%rsi,2),%rax
  4023fb:	49 8d 44 01 7b       	lea    0x7b(%r9,%rax,1),%rax
  402400:	48 3d 00 20 00 00    	cmp    $0x2000,%rax
  402406:	76 73                	jbe    40247b <submitr+0x2a0>
  402408:	48 b8 45 72 72 6f 72 	movabs $0x52203a726f727245,%rax
  40240f:	3a 20 52 
  402412:	49 89 06             	mov    %rax,(%r14)
  402415:	48 b8 65 73 75 6c 74 	movabs $0x747320746c757365,%rax
  40241c:	20 73 74 
  40241f:	49 89 46 08          	mov    %rax,0x8(%r14)
  402423:	48 b8 72 69 6e 67 20 	movabs $0x6f6f7420676e6972,%rax
  40242a:	74 6f 6f 
  40242d:	49 89 46 10          	mov    %rax,0x10(%r14)
  402431:	48 b8 20 6c 61 72 67 	movabs $0x202e656772616c20,%rax
  402438:	65 2e 20 
  40243b:	49 89 46 18          	mov    %rax,0x18(%r14)
  40243f:	48 b8 49 6e 63 72 65 	movabs $0x6573616572636e49,%rax
  402446:	61 73 65 
  402449:	49 89 46 20          	mov    %rax,0x20(%r14)
  40244d:	48 b8 20 53 55 42 4d 	movabs $0x5254494d42555320,%rax
  402454:	49 54 52 
  402457:	49 89 46 28          	mov    %rax,0x28(%r14)
  40245b:	48 b8 5f 4d 41 58 42 	movabs $0x46554258414d5f,%rax
  402462:	55 46 00 
  402465:	49 89 46 30          	mov    %rax,0x30(%r14)
  402469:	44 89 e7             	mov    %r12d,%edi
  40246c:	e8 3f e8 ff ff       	callq  400cb0 <close@plt>
  402471:	b8 ff ff ff ff       	mov    $0xffffffff,%eax
  402476:	e9 b6 05 00 00       	jmpq   402a31 <submitr+0x856>
  40247b:	48 8d 94 24 30 40 00 	lea    0x4030(%rsp),%rdx
  402482:	00 
  402483:	b9 00 04 00 00       	mov    $0x400,%ecx
  402488:	b8 00 00 00 00       	mov    $0x0,%eax
  40248d:	48 89 d7             	mov    %rdx,%rdi
  402490:	f3 48 ab             	rep stos %rax,%es:(%rdi)
  402493:	48 89 df             	mov    %rbx,%rdi
  402496:	48 c7 c1 ff ff ff ff 	mov    $0xffffffffffffffff,%rcx
  40249d:	f2 ae                	repnz scas %es:(%rdi),%al
  40249f:	48 f7 d1             	not    %rcx
  4024a2:	48 83 e9 01          	sub    $0x1,%rcx
  4024a6:	85 c9                	test   %ecx,%ecx
  4024a8:	0f 84 50 04 00 00    	je     4028fe <submitr+0x723>
  4024ae:	8d 41 ff             	lea    -0x1(%rcx),%eax
  4024b1:	4c 8d 6c 03 01       	lea    0x1(%rbx,%rax,1),%r13
  4024b6:	48 89 d5             	mov    %rdx,%rbp
  4024b9:	0f b6 13             	movzbl (%rbx),%edx
  4024bc:	80 fa 2a             	cmp    $0x2a,%dl
  4024bf:	74 1f                	je     4024e0 <submitr+0x305>
  4024c1:	8d 42 d3             	lea    -0x2d(%rdx),%eax
  4024c4:	3c 01                	cmp    $0x1,%al
  4024c6:	76 18                	jbe    4024e0 <submitr+0x305>
  4024c8:	80 fa 5f             	cmp    $0x5f,%dl
  4024cb:	74 13                	je     4024e0 <submitr+0x305>
  4024cd:	8d 42 d0             	lea    -0x30(%rdx),%eax
  4024d0:	3c 09                	cmp    $0x9,%al
  4024d2:	76 0c                	jbe    4024e0 <submitr+0x305>
  4024d4:	89 d0                	mov    %edx,%eax
  4024d6:	83 e0 df             	and    $0xffffffdf,%eax
  4024d9:	83 e8 41             	sub    $0x41,%eax
  4024dc:	3c 19                	cmp    $0x19,%al
  4024de:	77 09                	ja     4024e9 <submitr+0x30e>
  4024e0:	48 8d 45 01          	lea    0x1(%rbp),%rax
  4024e4:	88 55 00             	mov    %dl,0x0(%rbp)
  4024e7:	eb 52                	jmp    40253b <submitr+0x360>
  4024e9:	80 fa 20             	cmp    $0x20,%dl
  4024ec:	75 0a                	jne    4024f8 <submitr+0x31d>
  4024ee:	48 8d 45 01          	lea    0x1(%rbp),%rax
  4024f2:	c6 45 00 2b          	movb   $0x2b,0x0(%rbp)
  4024f6:	eb 43                	jmp    40253b <submitr+0x360>
  4024f8:	8d 42 e0             	lea    -0x20(%rdx),%eax
  4024fb:	3c 5f                	cmp    $0x5f,%al
  4024fd:	76 09                	jbe    402508 <submitr+0x32d>
  4024ff:	80 fa 09             	cmp    $0x9,%dl
  402502:	0f 85 57 04 00 00    	jne    40295f <submitr+0x784>
  402508:	0f b6 d2             	movzbl %dl,%edx
  40250b:	be 98 36 40 00       	mov    $0x403698,%esi
  402510:	48 8d 7c 24 10       	lea    0x10(%rsp),%rdi
  402515:	b8 00 00 00 00       	mov    $0x0,%eax
  40251a:	e8 c1 e8 ff ff       	callq  400de0 <sprintf@plt>
  40251f:	0f b6 44 24 10       	movzbl 0x10(%rsp),%eax
  402524:	88 45 00             	mov    %al,0x0(%rbp)
  402527:	0f b6 44 24 11       	movzbl 0x11(%rsp),%eax
  40252c:	88 45 01             	mov    %al,0x1(%rbp)
  40252f:	48 8d 45 03          	lea    0x3(%rbp),%rax
  402533:	0f b6 54 24 12       	movzbl 0x12(%rsp),%edx
  402538:	88 55 02             	mov    %dl,0x2(%rbp)
  40253b:	48 83 c3 01          	add    $0x1,%rbx
  40253f:	4c 39 eb             	cmp    %r13,%rbx
  402542:	0f 84 b6 03 00 00    	je     4028fe <submitr+0x723>
  402548:	48 89 c5             	mov    %rax,%rbp
  40254b:	e9 69 ff ff ff       	jmpq   4024b9 <submitr+0x2de>
  402550:	48 89 da             	mov    %rbx,%rdx
  402553:	48 89 ee             	mov    %rbp,%rsi
  402556:	44 89 e7             	mov    %r12d,%edi
  402559:	e8 02 e7 ff ff       	callq  400c60 <write@plt>
  40255e:	48 85 c0             	test   %rax,%rax
  402561:	7f 0f                	jg     402572 <submitr+0x397>
  402563:	e8 a8 e6 ff ff       	callq  400c10 <__errno_location@plt>
  402568:	83 38 04             	cmpl   $0x4,(%rax)
  40256b:	75 12                	jne    40257f <submitr+0x3a4>
  40256d:	b8 00 00 00 00       	mov    $0x0,%eax
  402572:	48 01 c5             	add    %rax,%rbp
  402575:	48 29 c3             	sub    %rax,%rbx
  402578:	75 d6                	jne    402550 <submitr+0x375>
  40257a:	4d 85 ed             	test   %r13,%r13
  40257d:	79 71                	jns    4025f0 <submitr+0x415>
  40257f:	48 b8 45 72 72 6f 72 	movabs $0x43203a726f727245,%rax
  402586:	3a 20 43 
  402589:	49 89 06             	mov    %rax,(%r14)
  40258c:	48 b8 6c 69 65 6e 74 	movabs $0x6e7520746e65696c,%rax
  402593:	20 75 6e 
  402596:	49 89 46 08          	mov    %rax,0x8(%r14)
  40259a:	48 b8 61 62 6c 65 20 	movabs $0x206f7420656c6261,%rax
  4025a1:	74 6f 20 
  4025a4:	49 89 46 10          	mov    %rax,0x10(%r14)
  4025a8:	48 b8 77 72 69 74 65 	movabs $0x6f74206574697277,%rax
  4025af:	20 74 6f 
  4025b2:	49 89 46 18          	mov    %rax,0x18(%r14)
  4025b6:	48 b8 20 74 68 65 20 	movabs $0x7365722065687420,%rax
  4025bd:	72 65 73 
  4025c0:	49 89 46 20          	mov    %rax,0x20(%r14)
  4025c4:	48 b8 75 6c 74 20 73 	movabs $0x7672657320746c75,%rax
  4025cb:	65 72 76 
  4025ce:	49 89 46 28          	mov    %rax,0x28(%r14)
  4025d2:	66 41 c7 46 30 65 72 	movw   $0x7265,0x30(%r14)
  4025d9:	41 c6 46 32 00       	movb   $0x0,0x32(%r14)
  4025de:	44 89 e7             	mov    %r12d,%edi
  4025e1:	e8 ca e6 ff ff       	callq  400cb0 <close@plt>
  4025e6:	b8 ff ff ff ff       	mov    $0xffffffff,%eax
  4025eb:	e9 41 04 00 00       	jmpq   402a31 <submitr+0x856>
  4025f0:	44 89 a4 24 30 80 00 	mov    %r12d,0x8030(%rsp)
  4025f7:	00 
  4025f8:	c7 84 24 34 80 00 00 	movl   $0x0,0x8034(%rsp)
  4025ff:	00 00 00 00 
  402603:	48 8d 84 24 40 80 00 	lea    0x8040(%rsp),%rax
  40260a:	00 
  40260b:	48 89 84 24 38 80 00 	mov    %rax,0x8038(%rsp)
  402612:	00 
  402613:	ba 00 20 00 00       	mov    $0x2000,%edx
  402618:	48 8d b4 24 30 60 00 	lea    0x6030(%rsp),%rsi
  40261f:	00 
  402620:	48 8d bc 24 30 80 00 	lea    0x8030(%rsp),%rdi
  402627:	00 
  402628:	e8 9c fa ff ff       	callq  4020c9 <rio_readlineb>
  40262d:	48 85 c0             	test   %rax,%rax
  402630:	0f 8f 80 00 00 00    	jg     4026b6 <submitr+0x4db>
  402636:	48 b8 45 72 72 6f 72 	movabs $0x43203a726f727245,%rax
  40263d:	3a 20 43 
  402640:	49 89 06             	mov    %rax,(%r14)
  402643:	48 b8 6c 69 65 6e 74 	movabs $0x6e7520746e65696c,%rax
  40264a:	20 75 6e 
  40264d:	49 89 46 08          	mov    %rax,0x8(%r14)
  402651:	48 b8 61 62 6c 65 20 	movabs $0x206f7420656c6261,%rax
  402658:	74 6f 20 
  40265b:	49 89 46 10          	mov    %rax,0x10(%r14)
  40265f:	48 b8 72 65 61 64 20 	movabs $0x7269662064616572,%rax
  402666:	66 69 72 
  402669:	49 89 46 18          	mov    %rax,0x18(%r14)
  40266d:	48 b8 73 74 20 68 65 	movabs $0x6564616568207473,%rax
  402674:	61 64 65 
  402677:	49 89 46 20          	mov    %rax,0x20(%r14)
  40267b:	48 b8 72 20 66 72 6f 	movabs $0x72206d6f72662072,%rax
  402682:	6d 20 72 
  402685:	49 89 46 28          	mov    %rax,0x28(%r14)
  402689:	48 b8 65 73 75 6c 74 	movabs $0x657320746c757365,%rax
  402690:	20 73 65 
  402693:	49 89 46 30          	mov    %rax,0x30(%r14)
  402697:	41 c7 46 38 72 76 65 	movl   $0x72657672,0x38(%r14)
  40269e:	72 
  40269f:	41 c6 46 3c 00       	movb   $0x0,0x3c(%r14)
  4026a4:	44 89 e7             	mov    %r12d,%edi
  4026a7:	e8 04 e6 ff ff       	callq  400cb0 <close@plt>
  4026ac:	b8 ff ff ff ff       	mov    $0xffffffff,%eax
  4026b1:	e9 7b 03 00 00       	jmpq   402a31 <submitr+0x856>
  4026b6:	4c 8d 44 24 20       	lea    0x20(%rsp),%r8
  4026bb:	48 8d 8c 24 2c 20 00 	lea    0x202c(%rsp),%rcx
  4026c2:	00 
  4026c3:	48 8d 94 24 30 20 00 	lea    0x2030(%rsp),%rdx
  4026ca:	00 
  4026cb:	be 9f 36 40 00       	mov    $0x40369f,%esi
  4026d0:	48 8d bc 24 30 60 00 	lea    0x6030(%rsp),%rdi
  4026d7:	00 
  4026d8:	b8 00 00 00 00       	mov    $0x0,%eax
  4026dd:	e8 8e e6 ff ff       	callq  400d70 <__isoc99_sscanf@plt>
  4026e2:	e9 9a 00 00 00       	jmpq   402781 <submitr+0x5a6>
  4026e7:	ba 00 20 00 00       	mov    $0x2000,%edx
  4026ec:	48 8d b4 24 30 60 00 	lea    0x6030(%rsp),%rsi
  4026f3:	00 
  4026f4:	48 8d bc 24 30 80 00 	lea    0x8030(%rsp),%rdi
  4026fb:	00 
  4026fc:	e8 c8 f9 ff ff       	callq  4020c9 <rio_readlineb>
  402701:	48 85 c0             	test   %rax,%rax
  402704:	7f 7b                	jg     402781 <submitr+0x5a6>
  402706:	48 b8 45 72 72 6f 72 	movabs $0x43203a726f727245,%rax
  40270d:	3a 20 43 
  402710:	49 89 06             	mov    %rax,(%r14)
  402713:	48 b8 6c 69 65 6e 74 	movabs $0x6e7520746e65696c,%rax
  40271a:	20 75 6e 
  40271d:	49 89 46 08          	mov    %rax,0x8(%r14)
  402721:	48 b8 61 62 6c 65 20 	movabs $0x206f7420656c6261,%rax
  402728:	74 6f 20 
  40272b:	49 89 46 10          	mov    %rax,0x10(%r14)
  40272f:	48 b8 72 65 61 64 20 	movabs $0x6165682064616572,%rax
  402736:	68 65 61 
  402739:	49 89 46 18          	mov    %rax,0x18(%r14)
  40273d:	48 b8 64 65 72 73 20 	movabs $0x6f72662073726564,%rax
  402744:	66 72 6f 
  402747:	49 89 46 20          	mov    %rax,0x20(%r14)
  40274b:	48 b8 6d 20 74 68 65 	movabs $0x657220656874206d,%rax
  402752:	20 72 65 
  402755:	49 89 46 28          	mov    %rax,0x28(%r14)
  402759:	48 b8 73 75 6c 74 20 	movabs $0x72657320746c7573,%rax
  402760:	73 65 72 
  402763:	49 89 46 30          	mov    %rax,0x30(%r14)
  402767:	41 c7 46 38 76 65 72 	movl   $0x726576,0x38(%r14)
  40276e:	00 
  40276f:	44 89 e7             	mov    %r12d,%edi
  402772:	e8 39 e5 ff ff       	callq  400cb0 <close@plt>
  402777:	b8 ff ff ff ff       	mov    $0xffffffff,%eax
  40277c:	e9 b0 02 00 00       	jmpq   402a31 <submitr+0x856>
  402781:	80 bc 24 30 60 00 00 	cmpb   $0xd,0x6030(%rsp)
  402788:	0d 
  402789:	0f 85 58 ff ff ff    	jne    4026e7 <submitr+0x50c>
  40278f:	80 bc 24 31 60 00 00 	cmpb   $0xa,0x6031(%rsp)
  402796:	0a 
  402797:	0f 85 4a ff ff ff    	jne    4026e7 <submitr+0x50c>
  40279d:	80 bc 24 32 60 00 00 	cmpb   $0x0,0x6032(%rsp)
  4027a4:	00 
  4027a5:	0f 85 3c ff ff ff    	jne    4026e7 <submitr+0x50c>
  4027ab:	ba 00 20 00 00       	mov    $0x2000,%edx
  4027b0:	48 8d b4 24 30 60 00 	lea    0x6030(%rsp),%rsi
  4027b7:	00 
  4027b8:	48 8d bc 24 30 80 00 	lea    0x8030(%rsp),%rdi
  4027bf:	00 
  4027c0:	e8 04 f9 ff ff       	callq  4020c9 <rio_readlineb>
  4027c5:	48 85 c0             	test   %rax,%rax
  4027c8:	0f 8f 87 00 00 00    	jg     402855 <submitr+0x67a>
  4027ce:	48 b8 45 72 72 6f 72 	movabs $0x43203a726f727245,%rax
  4027d5:	3a 20 43 
  4027d8:	49 89 06             	mov    %rax,(%r14)
  4027db:	48 b8 6c 69 65 6e 74 	movabs $0x6e7520746e65696c,%rax
  4027e2:	20 75 6e 
  4027e5:	49 89 46 08          	mov    %rax,0x8(%r14)
  4027e9:	48 b8 61 62 6c 65 20 	movabs $0x206f7420656c6261,%rax
  4027f0:	74 6f 20 
  4027f3:	49 89 46 10          	mov    %rax,0x10(%r14)
  4027f7:	48 b8 72 65 61 64 20 	movabs $0x6174732064616572,%rax
  4027fe:	73 74 61 
  402801:	49 89 46 18          	mov    %rax,0x18(%r14)
  402805:	48 b8 74 75 73 20 6d 	movabs $0x7373656d20737574,%rax
  40280c:	65 73 73 
  40280f:	49 89 46 20          	mov    %rax,0x20(%r14)
  402813:	48 b8 61 67 65 20 66 	movabs $0x6d6f726620656761,%rax
  40281a:	72 6f 6d 
  40281d:	49 89 46 28          	mov    %rax,0x28(%r14)
  402821:	48 b8 20 72 65 73 75 	movabs $0x20746c7573657220,%rax
  402828:	6c 74 20 
  40282b:	49 89 46 30          	mov    %rax,0x30(%r14)
  40282f:	41 c7 46 38 73 65 72 	movl   $0x76726573,0x38(%r14)
  402836:	76 
  402837:	66 41 c7 46 3c 65 72 	movw   $0x7265,0x3c(%r14)
  40283e:	41 c6 46 3e 00       	movb   $0x0,0x3e(%r14)
  402843:	44 89 e7             	mov    %r12d,%edi
  402846:	e8 65 e4 ff ff       	callq  400cb0 <close@plt>
  40284b:	b8 ff ff ff ff       	mov    $0xffffffff,%eax
  402850:	e9 dc 01 00 00       	jmpq   402a31 <submitr+0x856>
  402855:	8b 94 24 2c 20 00 00 	mov    0x202c(%rsp),%edx
  40285c:	81 fa c8 00 00 00    	cmp    $0xc8,%edx
  402862:	74 29                	je     40288d <submitr+0x6b2>
  402864:	48 8d 4c 24 20       	lea    0x20(%rsp),%rcx
  402869:	be 28 36 40 00       	mov    $0x403628,%esi
  40286e:	4c 89 f7             	mov    %r14,%rdi
  402871:	b8 00 00 00 00       	mov    $0x0,%eax
  402876:	e8 65 e5 ff ff       	callq  400de0 <sprintf@plt>
  40287b:	44 89 e7             	mov    %r12d,%edi
  40287e:	e8 2d e4 ff ff       	callq  400cb0 <close@plt>
  402883:	b8 ff ff ff ff       	mov    $0xffffffff,%eax
  402888:	e9 a4 01 00 00       	jmpq   402a31 <submitr+0x856>
  40288d:	48 8d b4 24 30 60 00 	lea    0x6030(%rsp),%rsi
  402894:	00 
  402895:	4c 89 f7             	mov    %r14,%rdi
  402898:	e8 a3 e3 ff ff       	callq  400c40 <strcpy@plt>
  40289d:	44 89 e7             	mov    %r12d,%edi
  4028a0:	e8 0b e4 ff ff       	callq  400cb0 <close@plt>
  4028a5:	41 0f b6 06          	movzbl (%r14),%eax
  4028a9:	83 e8 4f             	sub    $0x4f,%eax
  4028ac:	89 c2                	mov    %eax,%edx
  4028ae:	0f 85 35 01 00 00    	jne    4029e9 <submitr+0x80e>
  4028b4:	41 80 7e 01 4b       	cmpb   $0x4b,0x1(%r14)
  4028b9:	0f 85 50 01 00 00    	jne    402a0f <submitr+0x834>
  4028bf:	41 80 7e 02 0a       	cmpb   $0xa,0x2(%r14)
  4028c4:	0f 85 45 01 00 00    	jne    402a0f <submitr+0x834>
  4028ca:	41 80 7e 03 00       	cmpb   $0x0,0x3(%r14)
  4028cf:	74 23                	je     4028f4 <submitr+0x719>
  4028d1:	e9 39 01 00 00       	jmpq   402a0f <submitr+0x834>
  4028d6:	41 0f b6 56 01       	movzbl 0x1(%r14),%edx
  4028db:	83 ea 4b             	sub    $0x4b,%edx
  4028de:	75 05                	jne    4028e5 <submitr+0x70a>
  4028e0:	41 0f b6 56 02       	movzbl 0x2(%r14),%edx
  4028e5:	85 d2                	test   %edx,%edx
  4028e7:	0f 95 c0             	setne  %al
  4028ea:	0f b6 c0             	movzbl %al,%eax
  4028ed:	f7 d8                	neg    %eax
  4028ef:	e9 3d 01 00 00       	jmpq   402a31 <submitr+0x856>
  4028f4:	b8 00 00 00 00       	mov    $0x0,%eax
  4028f9:	e9 33 01 00 00       	jmpq   402a31 <submitr+0x856>
  4028fe:	4d 89 f9             	mov    %r15,%r9
  402901:	4c 8d 84 24 30 40 00 	lea    0x4030(%rsp),%r8
  402908:	00 
  402909:	48 8b 0c 24          	mov    (%rsp),%rcx
  40290d:	48 8b 54 24 08       	mov    0x8(%rsp),%rdx
  402912:	be 58 36 40 00       	mov    $0x403658,%esi
  402917:	48 8d bc 24 30 60 00 	lea    0x6030(%rsp),%rdi
  40291e:	00 
  40291f:	b8 00 00 00 00       	mov    $0x0,%eax
  402924:	e8 b7 e4 ff ff       	callq  400de0 <sprintf@plt>
  402929:	48 8d bc 24 30 60 00 	lea    0x6030(%rsp),%rdi
  402930:	00 
  402931:	b8 00 00 00 00       	mov    $0x0,%eax
  402936:	48 c7 c1 ff ff ff ff 	mov    $0xffffffffffffffff,%rcx
  40293d:	f2 ae                	repnz scas %es:(%rdi),%al
  40293f:	48 f7 d1             	not    %rcx
  402942:	48 83 e9 01          	sub    $0x1,%rcx
  402946:	49 89 cd             	mov    %rcx,%r13
  402949:	0f 84 a1 fc ff ff    	je     4025f0 <submitr+0x415>
  40294f:	48 89 cb             	mov    %rcx,%rbx
  402952:	48 8d ac 24 30 60 00 	lea    0x6030(%rsp),%rbp
  402959:	00 
  40295a:	e9 f1 fb ff ff       	jmpq   402550 <submitr+0x375>
  40295f:	48 b8 45 72 72 6f 72 	movabs $0x52203a726f727245,%rax
  402966:	3a 20 52 
  402969:	49 89 06             	mov    %rax,(%r14)
  40296c:	48 b8 65 73 75 6c 74 	movabs $0x747320746c757365,%rax
  402973:	20 73 74 
  402976:	49 89 46 08          	mov    %rax,0x8(%r14)
  40297a:	48 b8 72 69 6e 67 20 	movabs $0x6e6f6320676e6972,%rax
  402981:	63 6f 6e 
  402984:	49 89 46 10          	mov    %rax,0x10(%r14)
  402988:	48 b8 74 61 69 6e 73 	movabs $0x6e6120736e696174,%rax
  40298f:	20 61 6e 
  402992:	49 89 46 18          	mov    %rax,0x18(%r14)
  402996:	48 b8 20 69 6c 6c 65 	movabs $0x6c6167656c6c6920,%rax
  40299d:	67 61 6c 
  4029a0:	49 89 46 20          	mov    %rax,0x20(%r14)
  4029a4:	48 b8 20 6f 72 20 75 	movabs $0x72706e7520726f20,%rax
  4029ab:	6e 70 72 
  4029ae:	49 89 46 28          	mov    %rax,0x28(%r14)
  4029b2:	48 b8 69 6e 74 61 62 	movabs $0x20656c6261746e69,%rax
  4029b9:	6c 65 20 
  4029bc:	49 89 46 30          	mov    %rax,0x30(%r14)
  4029c0:	48 b8 63 68 61 72 61 	movabs $0x6574636172616863,%rax
  4029c7:	63 74 65 
  4029ca:	49 89 46 38          	mov    %rax,0x38(%r14)
  4029ce:	66 41 c7 46 40 72 2e 	movw   $0x2e72,0x40(%r14)
  4029d5:	41 c6 46 42 00       	movb   $0x0,0x42(%r14)
  4029da:	44 89 e7             	mov    %r12d,%edi
  4029dd:	e8 ce e2 ff ff       	callq  400cb0 <close@plt>
  4029e2:	b8 ff ff ff ff       	mov    $0xffffffff,%eax
  4029e7:	eb 48                	jmp    402a31 <submitr+0x856>
  4029e9:	bf b0 36 40 00       	mov    $0x4036b0,%edi
  4029ee:	b9 05 00 00 00       	mov    $0x5,%ecx
  4029f3:	4c 89 f6             	mov    %r14,%rsi
  4029f6:	f3 a6                	repz cmpsb %es:(%rdi),%ds:(%rsi)
  4029f8:	40 0f 97 c6          	seta   %sil
  4029fc:	0f 92 c1             	setb   %cl
  4029ff:	b8 00 00 00 00       	mov    $0x0,%eax
  402a04:	40 38 ce             	cmp    %cl,%sil
  402a07:	0f 85 d8 fe ff ff    	jne    4028e5 <submitr+0x70a>
  402a0d:	eb 22                	jmp    402a31 <submitr+0x856>
  402a0f:	bf b0 36 40 00       	mov    $0x4036b0,%edi
  402a14:	b9 05 00 00 00       	mov    $0x5,%ecx
  402a19:	4c 89 f6             	mov    %r14,%rsi
  402a1c:	f3 a6                	repz cmpsb %es:(%rdi),%ds:(%rsi)
  402a1e:	0f 97 c1             	seta   %cl
  402a21:	0f 92 c2             	setb   %dl
  402a24:	b8 00 00 00 00       	mov    $0x0,%eax
  402a29:	38 d1                	cmp    %dl,%cl
  402a2b:	0f 85 a5 fe ff ff    	jne    4028d6 <submitr+0x6fb>
  402a31:	48 81 c4 58 a0 00 00 	add    $0xa058,%rsp
  402a38:	5b                   	pop    %rbx
  402a39:	5d                   	pop    %rbp
  402a3a:	41 5c                	pop    %r12
  402a3c:	41 5d                	pop    %r13
  402a3e:	41 5e                	pop    %r14
  402a40:	41 5f                	pop    %r15
  402a42:	c3                   	retq   

0000000000402a43 <init_timeout>:
  402a43:	53                   	push   %rbx
  402a44:	89 fb                	mov    %edi,%ebx
  402a46:	85 ff                	test   %edi,%edi
  402a48:	74 1e                	je     402a68 <init_timeout+0x25>
  402a4a:	be a0 20 40 00       	mov    $0x4020a0,%esi
  402a4f:	bf 0e 00 00 00       	mov    $0xe,%edi
  402a54:	e8 87 e2 ff ff       	callq  400ce0 <signal@plt>
  402a59:	85 db                	test   %ebx,%ebx
  402a5b:	bf 00 00 00 00       	mov    $0x0,%edi
  402a60:	0f 49 fb             	cmovns %ebx,%edi
  402a63:	e8 38 e2 ff ff       	callq  400ca0 <alarm@plt>
  402a68:	5b                   	pop    %rbx
  402a69:	c3                   	retq   

0000000000402a6a <init_driver>:
  402a6a:	55                   	push   %rbp
  402a6b:	53                   	push   %rbx
  402a6c:	48 83 ec 18          	sub    $0x18,%rsp
  402a70:	48 89 fd             	mov    %rdi,%rbp
  402a73:	be 01 00 00 00       	mov    $0x1,%esi
  402a78:	bf 0d 00 00 00       	mov    $0xd,%edi
  402a7d:	e8 5e e2 ff ff       	callq  400ce0 <signal@plt>
  402a82:	be 01 00 00 00       	mov    $0x1,%esi
  402a87:	bf 1d 00 00 00       	mov    $0x1d,%edi
  402a8c:	e8 4f e2 ff ff       	callq  400ce0 <signal@plt>
  402a91:	be 01 00 00 00       	mov    $0x1,%esi
  402a96:	bf 1d 00 00 00       	mov    $0x1d,%edi
  402a9b:	e8 40 e2 ff ff       	callq  400ce0 <signal@plt>
  402aa0:	ba 00 00 00 00       	mov    $0x0,%edx
  402aa5:	be 01 00 00 00       	mov    $0x1,%esi
  402aaa:	bf 02 00 00 00       	mov    $0x2,%edi
  402aaf:	e8 5c e3 ff ff       	callq  400e10 <socket@plt>
  402ab4:	89 c3                	mov    %eax,%ebx
  402ab6:	85 c0                	test   %eax,%eax
  402ab8:	79 4f                	jns    402b09 <init_driver+0x9f>
  402aba:	48 b8 45 72 72 6f 72 	movabs $0x43203a726f727245,%rax
  402ac1:	3a 20 43 
  402ac4:	48 89 45 00          	mov    %rax,0x0(%rbp)
  402ac8:	48 b8 6c 69 65 6e 74 	movabs $0x6e7520746e65696c,%rax
  402acf:	20 75 6e 
  402ad2:	48 89 45 08          	mov    %rax,0x8(%rbp)
  402ad6:	48 b8 61 62 6c 65 20 	movabs $0x206f7420656c6261,%rax
  402add:	74 6f 20 
  402ae0:	48 89 45 10          	mov    %rax,0x10(%rbp)
  402ae4:	48 b8 63 72 65 61 74 	movabs $0x7320657461657263,%rax
  402aeb:	65 20 73 
  402aee:	48 89 45 18          	mov    %rax,0x18(%rbp)
  402af2:	c7 45 20 6f 63 6b 65 	movl   $0x656b636f,0x20(%rbp)
  402af9:	66 c7 45 24 74 00    	movw   $0x74,0x24(%rbp)
  402aff:	b8 ff ff ff ff       	mov    $0xffffffff,%eax
  402b04:	e9 23 01 00 00       	jmpq   402c2c <init_driver+0x1c2>
  402b09:	bf fb 31 40 00       	mov    $0x4031fb,%edi
  402b0e:	e8 dd e1 ff ff       	callq  400cf0 <gethostbyname@plt>
  402b13:	48 85 c0             	test   %rax,%rax
  402b16:	75 68                	jne    402b80 <init_driver+0x116>
  402b18:	48 b8 45 72 72 6f 72 	movabs $0x44203a726f727245,%rax
  402b1f:	3a 20 44 
  402b22:	48 89 45 00          	mov    %rax,0x0(%rbp)
  402b26:	48 b8 4e 53 20 69 73 	movabs $0x6e7520736920534e,%rax
  402b2d:	20 75 6e 
  402b30:	48 89 45 08          	mov    %rax,0x8(%rbp)
  402b34:	48 b8 61 62 6c 65 20 	movabs $0x206f7420656c6261,%rax
  402b3b:	74 6f 20 
  402b3e:	48 89 45 10          	mov    %rax,0x10(%rbp)
  402b42:	48 b8 72 65 73 6f 6c 	movabs $0x2065766c6f736572,%rax
  402b49:	76 65 20 
  402b4c:	48 89 45 18          	mov    %rax,0x18(%rbp)
  402b50:	48 b8 73 65 72 76 65 	movabs $0x6120726576726573,%rax
  402b57:	72 20 61 
  402b5a:	48 89 45 20          	mov    %rax,0x20(%rbp)
  402b5e:	c7 45 28 64 64 72 65 	movl   $0x65726464,0x28(%rbp)
  402b65:	66 c7 45 2c 73 73    	movw   $0x7373,0x2c(%rbp)
  402b6b:	c6 45 2e 00          	movb   $0x0,0x2e(%rbp)
  402b6f:	89 df                	mov    %ebx,%edi
  402b71:	e8 3a e1 ff ff       	callq  400cb0 <close@plt>
  402b76:	b8 ff ff ff ff       	mov    $0xffffffff,%eax
  402b7b:	e9 ac 00 00 00       	jmpq   402c2c <init_driver+0x1c2>
  402b80:	48 c7 04 24 00 00 00 	movq   $0x0,(%rsp)
  402b87:	00 
  402b88:	48 c7 44 24 08 00 00 	movq   $0x0,0x8(%rsp)
  402b8f:	00 00 
  402b91:	66 c7 04 24 02 00    	movw   $0x2,(%rsp)
  402b97:	48 63 50 14          	movslq 0x14(%rax),%rdx
  402b9b:	48 8d 74 24 04       	lea    0x4(%rsp),%rsi
  402ba0:	48 8b 40 18          	mov    0x18(%rax),%rax
  402ba4:	48 8b 38             	mov    (%rax),%rdi
  402ba7:	e8 e4 e1 ff ff       	callq  400d90 <bcopy@plt>
  402bac:	66 c7 44 24 02 3c 9a 	movw   $0x9a3c,0x2(%rsp)
  402bb3:	ba 10 00 00 00       	mov    $0x10,%edx
  402bb8:	48 89 e6             	mov    %rsp,%rsi
  402bbb:	89 df                	mov    %ebx,%edi
  402bbd:	e8 3e e2 ff ff       	callq  400e00 <connect@plt>
  402bc2:	85 c0                	test   %eax,%eax
  402bc4:	79 50                	jns    402c16 <init_driver+0x1ac>
  402bc6:	48 b8 45 72 72 6f 72 	movabs $0x55203a726f727245,%rax
  402bcd:	3a 20 55 
  402bd0:	48 89 45 00          	mov    %rax,0x0(%rbp)
  402bd4:	48 b8 6e 61 62 6c 65 	movabs $0x6f7420656c62616e,%rax
  402bdb:	20 74 6f 
  402bde:	48 89 45 08          	mov    %rax,0x8(%rbp)
  402be2:	48 b8 20 63 6f 6e 6e 	movabs $0x7463656e6e6f6320,%rax
  402be9:	65 63 74 
  402bec:	48 89 45 10          	mov    %rax,0x10(%rbp)
  402bf0:	48 b8 20 74 6f 20 73 	movabs $0x76726573206f7420,%rax
  402bf7:	65 72 76 
  402bfa:	48 89 45 18          	mov    %rax,0x18(%rbp)
  402bfe:	66 c7 45 20 65 72    	movw   $0x7265,0x20(%rbp)
  402c04:	c6 45 22 00          	movb   $0x0,0x22(%rbp)
  402c08:	89 df                	mov    %ebx,%edi
  402c0a:	e8 a1 e0 ff ff       	callq  400cb0 <close@plt>
  402c0f:	b8 ff ff ff ff       	mov    $0xffffffff,%eax
  402c14:	eb 16                	jmp    402c2c <init_driver+0x1c2>
  402c16:	89 df                	mov    %ebx,%edi
  402c18:	e8 93 e0 ff ff       	callq  400cb0 <close@plt>
  402c1d:	66 c7 45 00 4f 4b    	movw   $0x4b4f,0x0(%rbp)
  402c23:	c6 45 02 00          	movb   $0x0,0x2(%rbp)
  402c27:	b8 00 00 00 00       	mov    $0x0,%eax
  402c2c:	48 83 c4 18          	add    $0x18,%rsp
  402c30:	5b                   	pop    %rbx
  402c31:	5d                   	pop    %rbp
  402c32:	c3                   	retq   

0000000000402c33 <driver_post>:
  402c33:	53                   	push   %rbx
  402c34:	48 83 ec 10          	sub    $0x10,%rsp
  402c38:	4c 89 cb             	mov    %r9,%rbx
  402c3b:	45 85 c0             	test   %r8d,%r8d
  402c3e:	74 22                	je     402c62 <driver_post+0x2f>
  402c40:	48 89 ce             	mov    %rcx,%rsi
  402c43:	bf b5 36 40 00       	mov    $0x4036b5,%edi
  402c48:	b8 00 00 00 00       	mov    $0x0,%eax
  402c4d:	e8 2e e0 ff ff       	callq  400c80 <printf@plt>
  402c52:	66 c7 03 4f 4b       	movw   $0x4b4f,(%rbx)
  402c57:	c6 43 02 00          	movb   $0x0,0x2(%rbx)
  402c5b:	b8 00 00 00 00       	mov    $0x0,%eax
  402c60:	eb 39                	jmp    402c9b <driver_post+0x68>
  402c62:	48 85 ff             	test   %rdi,%rdi
  402c65:	74 26                	je     402c8d <driver_post+0x5a>
  402c67:	80 3f 00             	cmpb   $0x0,(%rdi)
  402c6a:	74 21                	je     402c8d <driver_post+0x5a>
  402c6c:	4c 89 0c 24          	mov    %r9,(%rsp)
  402c70:	49 89 c9             	mov    %rcx,%r9
  402c73:	49 89 d0             	mov    %rdx,%r8
  402c76:	48 89 f9             	mov    %rdi,%rcx
  402c79:	48 89 f2             	mov    %rsi,%rdx
  402c7c:	be 9a 3c 00 00       	mov    $0x3c9a,%esi
  402c81:	bf fb 31 40 00       	mov    $0x4031fb,%edi
  402c86:	e8 50 f5 ff ff       	callq  4021db <submitr>
  402c8b:	eb 0e                	jmp    402c9b <driver_post+0x68>
  402c8d:	66 c7 03 4f 4b       	movw   $0x4b4f,(%rbx)
  402c92:	c6 43 02 00          	movb   $0x0,0x2(%rbx)
  402c96:	b8 00 00 00 00       	mov    $0x0,%eax
  402c9b:	48 83 c4 10          	add    $0x10,%rsp
  402c9f:	5b                   	pop    %rbx
  402ca0:	c3                   	retq   
  402ca1:	66 2e 0f 1f 84 00 00 	nopw   %cs:0x0(%rax,%rax,1)
  402ca8:	00 00 00 
  402cab:	0f 1f 44 00 00       	nopl   0x0(%rax,%rax,1)

0000000000402cb0 <check>:
  402cb0:	89 fa                	mov    %edi,%edx
  402cb2:	c1 ea 1c             	shr    $0x1c,%edx
  402cb5:	b8 00 00 00 00       	mov    $0x0,%eax
  402cba:	85 d2                	test   %edx,%edx
  402cbc:	74 2e                	je     402cec <check+0x3c>
  402cbe:	40 80 ff 0a          	cmp    $0xa,%dil
  402cc2:	74 17                	je     402cdb <check+0x2b>
  402cc4:	b9 08 00 00 00       	mov    $0x8,%ecx
  402cc9:	89 f8                	mov    %edi,%eax
  402ccb:	d3 e8                	shr    %cl,%eax
  402ccd:	3c 0a                	cmp    $0xa,%al
  402ccf:	74 10                	je     402ce1 <check+0x31>
  402cd1:	83 c1 08             	add    $0x8,%ecx
  402cd4:	83 f9 20             	cmp    $0x20,%ecx
  402cd7:	75 f0                	jne    402cc9 <check+0x19>
  402cd9:	eb 0c                	jmp    402ce7 <check+0x37>
  402cdb:	b8 00 00 00 00       	mov    $0x0,%eax
  402ce0:	c3                   	retq   
  402ce1:	b8 00 00 00 00       	mov    $0x0,%eax
  402ce6:	c3                   	retq   
  402ce7:	b8 01 00 00 00       	mov    $0x1,%eax
  402cec:	f3 c3                	repz retq 

0000000000402cee <gencookie>:
  402cee:	53                   	push   %rbx
  402cef:	83 c7 01             	add    $0x1,%edi
  402cf2:	e8 29 df ff ff       	callq  400c20 <srandom@plt>
  402cf7:	e8 54 e0 ff ff       	callq  400d50 <random@plt>
  402cfc:	89 c3                	mov    %eax,%ebx
  402cfe:	89 c7                	mov    %eax,%edi
  402d00:	e8 ab ff ff ff       	callq  402cb0 <check>
  402d05:	85 c0                	test   %eax,%eax
  402d07:	74 ee                	je     402cf7 <gencookie+0x9>
  402d09:	89 d8                	mov    %ebx,%eax
  402d0b:	5b                   	pop    %rbx
  402d0c:	c3                   	retq   
  402d0d:	0f 1f 00             	nopl   (%rax)

0000000000402d10 <__libc_csu_init>:
  402d10:	41 57                	push   %r15
  402d12:	41 89 ff             	mov    %edi,%r15d
  402d15:	41 56                	push   %r14
  402d17:	49 89 f6             	mov    %rsi,%r14
  402d1a:	41 55                	push   %r13
  402d1c:	49 89 d5             	mov    %rdx,%r13
  402d1f:	41 54                	push   %r12
  402d21:	4c 8d 25 e8 20 20 00 	lea    0x2020e8(%rip),%r12        # 604e10 <__frame_dummy_init_array_entry>
  402d28:	55                   	push   %rbp
  402d29:	48 8d 2d e8 20 20 00 	lea    0x2020e8(%rip),%rbp        # 604e18 <__init_array_end>
  402d30:	53                   	push   %rbx
  402d31:	4c 29 e5             	sub    %r12,%rbp
  402d34:	31 db                	xor    %ebx,%ebx
  402d36:	48 c1 fd 03          	sar    $0x3,%rbp
  402d3a:	48 83 ec 08          	sub    $0x8,%rsp
  402d3e:	e8 85 de ff ff       	callq  400bc8 <_init>
  402d43:	48 85 ed             	test   %rbp,%rbp
  402d46:	74 1e                	je     402d66 <__libc_csu_init+0x56>
  402d48:	0f 1f 84 00 00 00 00 	nopl   0x0(%rax,%rax,1)
  402d4f:	00 
  402d50:	4c 89 ea             	mov    %r13,%rdx
  402d53:	4c 89 f6             	mov    %r14,%rsi
  402d56:	44 89 ff             	mov    %r15d,%edi
  402d59:	41 ff 14 dc          	callq  *(%r12,%rbx,8)
  402d5d:	48 83 c3 01          	add    $0x1,%rbx
  402d61:	48 39 eb             	cmp    %rbp,%rbx
  402d64:	75 ea                	jne    402d50 <__libc_csu_init+0x40>
  402d66:	48 83 c4 08          	add    $0x8,%rsp
  402d6a:	5b                   	pop    %rbx
  402d6b:	5d                   	pop    %rbp
  402d6c:	41 5c                	pop    %r12
  402d6e:	41 5d                	pop    %r13
  402d70:	41 5e                	pop    %r14
  402d72:	41 5f                	pop    %r15
  402d74:	c3                   	retq   
  402d75:	90                   	nop
  402d76:	66 2e 0f 1f 84 00 00 	nopw   %cs:0x0(%rax,%rax,1)
  402d7d:	00 00 00 

0000000000402d80 <__libc_csu_fini>:
  402d80:	f3 c3                	repz retq 

Disassembly of section .fini:

0000000000402d84 <_fini>:
  402d84:	48 83 ec 08          	sub    $0x8,%rsp
  402d88:	48 83 c4 08          	add    $0x8,%rsp
  402d8c:	c3                   	retq   
